c__builtin__
set
p0
((lp1
I13391872
aI13417017
aI13431011
aI13391813
aI13401734
aI13348327
aI13344936
aI13532237
aI13504525
aI13480976
aI13520008
aI13539603
aI13517784
aI13459702
aI13474009
aI13455224
aI13465561
aI13400731
aI13513852
aI13349342
atp2
Rp3
.