c__builtin__
set
p0
((lp1
I13391872
aI13374980
aI13466117
aI13451782
aI13373448
aI13341705
aI13543434
aI13504525
aI13480976
aI13391619
aI13418519
aI13508271
aI13415964
aI13531174
aI13524523
aI13403570
aI13494833
aI13417017
aI13338174
aI13371455
aI13414978
aI13371468
aI13485653
aI13413964
aI13463143
aI13511274
aI13508208
aI13511282
aI13367924
aI13539447
aI13471355
aI13340799
aI13337731
aI13401734
aI13487754
aI13454478
aI13392531
aI13446806
aI13400731
aI13397663
aI13353633
aI13380262
aI13344936
aI13506218
aI13347501
aI13344431
aI13428400
aI13344946
aI13384372
aI13485247
aI13459649
aI13393099
aI13335414
aI13341382
aI13409995
aI13481677
aI13365969
aI13370068
aI13381850
aI13470427
aI13431011
aI13353191
aI13341929
aI13403371
aI13366517
aI13412088
aI13437483
aI13406468
aI13479689
aI13449996
aI13412118
aI13402393
aI13437723
aI13435677
aI13464862
aI13416224
aI13478698
aI13393708
aI13475629
aI13475634
aI13456185
aI13509947
aI13373761
aI13529414
aI13389129
aI13358922
aI13505359
aI13348179
aI13399907
aI13429137
aI13373290
aI13486443
aI13452690
aI13439342
aI13428079
aI13362548
aI13517686
aI13455224
aI13472127
aI13444431
aI13350282
aI13420430
aI13428112
aI13457297
aI13494674
aI13366678
aI13395367
aI13403564
aI13473709
aI13415855
aI13429169
aI13399474
aI13503938
aI13393348
aI13391813
aI13388961
aI13460425
aI13403089
aI13450196
aI13465561
aI13487067
aI13453276
aI13413344
aI13447654
aI13344231
aI13393386
aI13513711
aI13358064
aI13477032
aI13510644
aI13540856
aI13508602
aI13347498
aI13478398
atp2
Rp3
.