c__builtin__
set
p0
((lp1
I13533188
aI13533191
aI13500424
aI13336588
aI13434894
aI13500435
aI13369366
aI13500450
aI13467684
aI13369385
aI13402159
aI13336626
aI13434931
aI13369398
aI13336634
aI13500477
aI13467712
aI13336641
aI13402184
aI13500495
aI13369435
aI13434973
aI13336694
aI13467770
aI13369473
aI13533332
aI13533340
aI13402283
aI13467821
aI13435056
aI13402290
aI13369524
aI13533375
aI13467841
aI13544204
aI13467856
aI13467862
aI13500634
aI13533405
aI13435102
aI13369576
aI13402356
aI13435149
aI13402383
aI13435152
aI13533469
aI13336866
aI13533482
aI13402411
aI13435184
aI13385779
aI13467967
aI13500741
aI13533512
aI13500758
aI13533527
aI13489551
aI13336933
aI13369708
aI13402489
aI13500795
aI13435263
aI13500823
aI13402521
aI13435292
aI13468062
aI13336991
aI13435298
aI13369774
aI13500847
aI13462260
aI13468095
aI13369799
aI13435344
aI13468117
aI13337048
aI13434959
aI13402594
aI13468135
aI13533678
aI13522072
aI13402619
aI13468157
aI13369855
aI13337091
aI13402632
aI13435403
aI13468177
aI13468181
aI13500970
aI13402677
aI13402679
aI13337145
aI13468218
aI13533765
aI13468233
aI13402701
aI13402707
aI13337173
aI13337178
aI13402715
aI13369953
aI13501030
aI13435498
aI13402731
aI13337196
aI13501043
aI13435518
aI13369992
aI13370001
aI13402772
aI13435541
aI13533850
aI13402784
aI13402808
aI13533884
aI13468349
aI13402817
aI13445921
aI13468361
aI13501137
aI13337298
aI13402841
aI13435611
aI13533916
aI13501165
aI13402865
aI13337337
aI13402876
aI13337342
aI13370118
aI13402887
aI13435671
aI13402904
aI13435677
aI13501215
aI13468455
aI13402923
aI13370169
aI13337405
aI13501251
aI13402948
aI13370193
aI13468499
aI13435736
aI13337442
aI13370211
aI13402987
aI13337452
aI13468531
aI13337461
aI13468534
aI13468536
aI13534073
aI13534076
aI13337478
aI13501321
aI13534097
aI13370258
aI13435800
aI13468571
aI13534112
aI13337507
aI13370278
aI13435823
aI13534131
aI13337524
aI13501367
aI13337531
aI13370303
aI13403089
aI13501399
aI13468636
aI13370343
aI13501417
aI13435887
aI13468669
aI13370371
aI13435910
aI13534215
aI13370380
aI13534229
aI13337622
aI13424133
aI13501487
aI13468720
aI13370441
aI13337678
aI13435988
aI13501533
aI13337695
aI13403237
aI13403245
aI13337711
aI13436020
aI13501560
aI13337731
aI13403281
aI13403297
aI13403301
aI13436076
aI13370545
aI13403315
aI13468854
aI13370554
aI13370566
aI13501645
aI13534415
aI13337810
aI13534419
aI13337815
aI13534425
aI13403356
aI13534454
aI13337852
aI13403391
aI13534464
aI13534489
aI13337883
aI13468965
aI13370662
aI13500637
aI13403445
aI13501752
aI13534521
aI13353183
aI13396874
aI13436232
aI13534538
aI13501771
aI13403475
aI13370713
aI13501790
aI13403490
aI13436267
aI13469054
aI13370766
aI13501839
aI13534610
aI13403559
aI13370792
aI13403564
aI13338030
aI13403570
aI13338035
aI13478814
aI13469110
aI13370818
aI13436358
aI13338059
aI13469139
aI13534679
aI13338072
aI13462436
aI13436388
aI13501936
aI13469169
aI13403635
aI13375123
aI13338103
aI13338108
aI13436413
aI13338115
aI13469191
aI13544364
aI13501970
aI13391449
aI13436441
aI13370907
aI13501984
aI13370916
aI13436453
aI13469237
aI13338166
aI13338174
aI13502015
aI13370952
aI13469258
aI13502028
aI13338194
aI13436502
aI13534815
aI13369616
aI13502054
aI13522535
aI13469294
aI13370991
aI13502069
aI13371004
aI13469314
aI13502091
aI13403788
aI13534866
aI13502113
aI13403813
aI13371049
aI13403821
aI13338288
aI13534897
aI13338291
aI13502133
aI13338316
aI13403855
aI13502160
aI13338328
aI13371100
aI13391482
aI13502174
aI13502181
aI13534959
aI13534964
aI13502199
aI13502217
aI13371158
aI13469490
aI13436724
aI13502263
aI13469498
aI13436736
aI13403981
aI13535055
aI13338448
aI13502302
aI13535073
aI13535085
aI13502320
aI13338483
aI13404020
aI13338495
aI13436800
aI13535106
aI13535113
aI13338511
aI13404052
aI13404058
aI13535132
aI13404061
aI13469598
aI13502379
aI13338542
aI13502387
aI13371319
aI13469628
aI13404094
aI13338573
aI13371343
aI13502418
aI13469655
aI13469661
aI13502434
aI13436904
aI13535213
aI13476615
aI13404145
aI13535219
aI13469698
aI13338627
aI13535238
aI13469707
aI13404178
aI13502494
aI13371436
aI13338680
aI13436985
aI13371455
aI13469760
aI13535298
aI13436997
aI13469780
aI13429774
aI13338716
aI13502561
aI13404262
aI13371499
aI13502573
aI13437040
aI13502577
aI13404276
aI13535353
aI13535367
aI13404296
aI13469840
aI13535379
aI13502618
aI13437091
aI13371563
aI13404335
aI13338801
aI13437108
aI13535413
aI13469883
aI13371584
aI13397024
aI13437122
aI13437127
aI13404363
aI13404378
aI13338847
aI13535456
aI13502694
aI13404391
aI13535480
aI13502717
aI13371658
aI13404427
aI13469964
aI13502737
aI13338902
aI13535524
aI13404457
aI13338930
aI13535548
aI13502782
aI13502786
aI13470032
aI13502805
aI13470041
aI13535583
aI13478971
aI13342439
aI13535599
aI13404531
aI13502841
aI13535612
aI13404541
aI13437316
aI13404550
aI13339015
aI13404555
aI13437325
aI13404560
aI13502865
aI13535644
aI13371805
aI13404575
aI13339041
aI13502886
aI13402524
aI13404597
aI13470135
aI13502908
aI13535683
aI13437382
aI13386067
aI13470162
aI13535702
aI13371863
aI13502938
aI13404639
aI13502946
aI13339109
aI13339111
aI13535731
aI13342462
aI13470198
aI13502973
aI13339153
aI13502996
aI13371929
aI13470255
aI13503033
aI13470268
aI13404737
aI13437506
aI13339203
aI13371979
aI13437516
aI13339213
aI13535822
aI13535826
aI13404755
aI13535834
aI13535836
aI13339238
aI13503080
aI13437545
aI13404782
aI13339247
aI13470328
aI13437567
aI13339276
aI13535891
aI13535902
aI13372070
aI13404839
aI13503145
aI13528178
aI13503157
aI13372099
aI13470404
aI13535955
aI13397113
aI13503193
aI13470427
aI13437666
aI13372131
aI13372145
aI13470450
aI13339390
aI13535999
aI13372164
aI13536006
aI13372168
aI13511558
aI13339419
aI13339447
aI13437763
aI13405007
aI13503312
aI13405011
aI13536087
aI13503322
aI13372274
aI13437811
aI13339513
aI13536126
aI13405069
aI13339546
aI13372319
aI13339556
aI13437863
aI13405097
aI13372331
aI13536173
aI13372336
aI13522760
aI13470649
aI13536190
aI13437887
aI13405121
aI13405123
aI13339589
aI13503436
aI13405137
aI13470674
aI13372374
aI13470683
aI13536226
aI13503463
aI13470705
aI13470709
aI13437942
aI13405175
aI13437950
aI13503490
aI13405196
aI13372429
aI13437967
aI13372435
aI13372463
aI13380787
aI13536312
aI13438013
aI13470786
aI13470788
aI13372485
aI13405255
aI13470794
aI13536349
aI13470816
aI13438050
aI13503589
aI13372518
aI13470830
aI13339771
aI13470847
aI13536399
aI13438110
aI13438119
aI13438123
aI13405366
aI13405381
aI13536455
aI13405387
aI13470932
aI13372639
aI13405408
aI13503716
aI13438181
aI13372650
aI13405424
aI13438208
aI13536518
aI13438216
aI13372682
aI13405459
aI13339925
aI13438247
aI13372714
aI13471022
aI13405491
aI13471029
aI13536579
aI13536593
aI13471060
aI13369913
aI13372763
aI13339998
aI13372770
aI13536614
aI13462759
aI13405548
aI13340017
aI13451840
aI13536642
aI13503876
aI13340042
aI13536654
aI13503888
aI13503897
aI13340061
aI13438366
aI13405600
aI13471139
aI13536681
aI13438387
aI13503924
aI13405632
aI13503938
aI13471176
aI13340124
aI13536738
aI13438435
aI13471224
aI13340153
aI13536763
aI13372930
aI13405700
aI13438472
aI13405706
aI13438477
aI13536794
aI13372977
aI13438530
aI13373010
aI13373018
aI13340251
aI13536861
aI13438564
aI13340261
aI13373034
aI13373038
aI13471343
aI13405819
aI13536900
aI13504136
aI13471369
aI13438605
aI13373072
aI13405849
aI13340315
aI13504162
aI13373091
aI13438641
aI13373109
aI13438648
aI13438650
aI13504190
aI13405894
aI13340360
aI13536972
aI13471438
aI13405905
aI13438674
aI13405913
aI13373152
aI13438689
aI13373159
aI13405928
aI13504240
aI13373174
aI13340414
aI13373186
aI13340420
aI13537041
aI13471507
aI13405973
aI13373216
aI13339943
aI13504299
aI13471532
aI13340469
aI13438778
aI13373248
aI13504324
aI13537096
aI13504338
aI13373273
aI13340539
aI13340546
aI13504391
aI13471626
aI13373323
aI13397314
aI13471631
aI13406111
aI13406123
aI13537198
aI13340598
aI13504443
aI13406143
aI13370016
aI13438932
aI13430094
aI13537253
aI13413714
aI13504496
aI13446483
aI13406207
aI13537281
aI13406214
aI13438985
aI13504525
aI13340690
aI13373466
aI13471771
aI13471775
aI13340713
aI13504557
aI13406260
aI13504572
aI13522954
aI13471810
aI13537347
aI13340748
aI13504590
aI13406291
aI13373541
aI13406312
aI13413735
aI13471852
aI13373549
aI13340788
aI13537399
aI13373561
aI13471866
aI13340799
aI13340802
aI13504643
aI13340808
aI13380972
aI13479278
aI13406361
aI13537434
aI13471900
aI13504674
aI13373607
aI13439147
aI13340849
aI13504690
aI13373619
aI13340854
aI13537466
aI13406398
aI13373638
aI13471947
aI13373651
aI13471956
aI13373661
aI13504737
aI13537507
aI13471979
aI13537516
aI13471997
aI13373698
aI13408299
aI13406468
aI13504774
aI13373706
aI13537549
aI13373714
aI13504788
aI13501145
aI13408304
aI13439280
aI13406517
aI13373751
aI13373761
aI13504852
aI13342777
aI13472090
aI13439324
aI13472108
aI13439342
aI13537648
aI13439349
aI13472121
aI13504895
aI13439362
aI13373834
aI13341073
aI13472159
aI13472169
aI13439402
aI13341105
aI13504946
aI13408329
aI13406648
aI13373892
aI13373906
aI13439444
aI13373910
aI13439451
aI13504998
aI13373938
aI13406708
aI13341178
aI13505031
aI13439501
aI13439506
aI13373976
aI13341245
aI13505091
aI13439559
aI13406793
aI13341260
aI13472335
aI13341267
aI13406811
aI13505117
aI13374050
aI13374052
aI13505134
aI13341326
aI13406863
aI13439635
aI13374101
aI13439647
aI13374121
aI13341359
aI13472450
aI13406915
aI13341382
aI13439691
aI13341394
aI13374168
aI13406946
aI13505256
aI13341419
aI13439726
aI13406959
aI13341424
aI13472501
aI13505271
aI13439737
aI13538042
aI13472512
aI13370155
aI13505286
aI13472522
aI13406991
aI13472535
aI13342853
aI13439776
aI13407011
aI13538087
aI13538100
aI13341493
aI13341495
aI13439800
aI13407039
aI13538113
aI13407045
aI13407050
aI13341516
aI13341539
aI13505392
aI13472628
aI13505400
aI13341571
aI13341592
aI13341596
aI13374377
aI13463026
aI13341616
aI13538226
aI13439923
aI13341621
aI13472695
aI13374392
aI13505466
aI13505475
aI13374404
aI13439951
aI13472721
aI13341654
aI13341660
aI13505503
aI13505513
aI13538287
aI13407216
aI13439991
aI13374457
aI13472773
aI13538312
aI13359276
aI13501272
aI13505554
aI13341721
aI13407268
aI13341733
aI13538343
aI13538358
aI13440062
aI13472837
aI13407304
aI13341769
aI13374544
aI13341782
aI13538397
aI13472875
aI13341812
aI13440117
aI13341818
aI13374588
aI13341827
aI13468524
aI13472912
aI13440151
aI13341850
aI13505695
aI13374626
aI13472934
aI13374638
aI13440188
aI13374657
aI13532372
aI13374667
aI13403000
aI13374696
aI13341929
aI13374699
aI13538542
aI13341935
aI13538552
aI13374716
aI13440253
aI13440257
aI13374737
aI13473042
aI13440275
aI13538584
aI13407517
aI13374751
aI13348400
aI13505828
aI13538601
aI13473069
aI13435785
aI13407545
aI13440315
aI13342012
aI13463093
aI13538625
aI13342021
aI13440328
aI13505869
aI13473103
aI13342032
aI13505874
aI13473113
aI13538653
aI13440352
aI13538667
aI13374830
aI13440371
aI13473149
aI13440390
aI13407623
aI13440398
aI13505936
aI13505941
aI13473175
aI13440408
aI13374878
aI13342121
aI13505974
aI13374910
aI13538751
aI13342145
aI13407686
aI13374919
aI13342153
aI13374931
aI13440468
aI13342166
aI13473241
aI13506012
aI13538781
aI13538783
aI13435814
aI13374952
aI13440492
aI13538799
aI13407728
aI13506195
aI13506041
aI13407738
aI13506045
aI13342210
aI13374980
aI13440517
aI13407770
aI13534127
aI13440545
aI13538856
aI13506099
aI13342272
aI13440589
aI13441293
aI13342291
aI13538911
aI13506151
aI13440616
aI13375081
aI13538937
aI13506171
aI13440639
aI13473409
aI13407880
aI13407884
aI13342351
aI13407888
aI13342355
aI13538982
aI13506218
aI13342380
aI13375151
aI13538997
aI13473463
aI13342401
aI13506243
aI13407943
aI13506251
aI13342418
aI13539041
aI13407972
aI13473509
aI13539047
aI13506282
aI13375212
aI13407995
aI13473534
aI13408000
aI13506305
aI13473568
aI13375267
aI13375272
aI13506349
aI13473590
aI13506359
aI13440826
aI13408059
aI13440837
aI13440853
aI13473622
aI13342555
aI13342559
aI13408099
aI13539180
aI13375343
aI13440890
aI13545110
aI13473685
aI13473689
aI13534191
aI13348506
aI13506465
aI13473709
aI13506479
aI13473714
aI13440954
aI13375419
aI13506492
aI13408193
aI13440968
aI13440994
aI13539307
aI13473780
aI13539321
aI13506554
aI13342717
aI13375498
aI13539346
aI13342746
aI13364911
aI13375517
aI13408291
aI13342758
aI13473833
aI13375531
aI13506606
aI13522581
aI13408306
aI13375541
aI13539385
aI13375549
aI13392224
aI13408322
aI13408324
aI13468684
aI13342802
aI13342813
aI13406923
aI13473895
aI13342826
aI13375596
aI13408365
aI13539447
aI13539453
aI13408383
aI13408386
aI13408388
aI13473925
aI13539470
aI13408399
aI13342873
aI13502034
aI13473995
aI13408470
aI13539545
aI13441244
aI13375709
aI13539552
aI13342953
aI13506796
aI13342963
aI13539578
aI13342975
aI13506820
aI13441286
aI13342989
aI13408526
aI13506831
aI13523331
aI13474074
aI13441308
aI13343008
aI13353464
aI13408557
aI13358920
aI13474097
aI13539638
aI13539646
aI13506886
aI13539665
aI13343058
aI13545188
aI13441378
aI13539698
aI13343095
aI13408637
aI13375870
aI13474175
aI13506949
aI13474187
aI13343124
aI13408666
aI13474217
aI13474231
aI13408697
aI13441468
aI13474237
aI13539783
aI13479672
aI13343186
aI13474264
aI13337939
aI13441505
aI13539814
aI13441521
aI13375997
aI13408768
aI13545217
aI13523372
aI13474320
aI13539861
aI13376040
aI13474350
aI13474355
aI13545225
aI13539896
aI13343294
aI13408835
aI13441605
aI13507148
aI13419619
aI13441465
aI13343325
aI13408864
aI13343330
aI13474404
aI13441644
aI13539773
aI13474416
aI13507190
aI13474427
aI13539975
aI13539982
aI13474449
aI13539990
aI13545242
aI13441695
aI13540006
aI13540012
aI13408944
aI13507252
aI13343424
aI13343427
aI13441733
aI13376206
aI13343442
aI13408986
aI13507292
aI13507303
aI13441771
aI13376251
aI13545258
aI13343487
aI13507328
aI13540101
aI13343508
aI13474587
aI13507358
aI13376292
aI13409061
aI13540136
aI13343531
aI13474614
aI13540158
aI13545269
aI13441859
aI13441861
aI13409099
aI13376337
aI13507417
aI13343578
aI13409116
aI13540201
aI13441903
aI13343602
aI13540213
aI13343608
aI13376382
aI13343619
aI13376396
aI13343629
aI13441945
aI13376417
aI13441960
aI13540267
aI13441966
aI13441975
aI13507516
aI13540286
aI13540303
aI13507536
aI13343704
aI13409242
aI13507548
aI13442021
aI13376488
aI13540343
aI13442041
aI13376506
aI13343739
aI13409276
aI13441536
aI13442051
aI13442057
aI13409295
aI13386927
aI13442076
aI13474847
aI13343239
aI13343788
aI13409336
aI13474876
aI13343814
aI13474890
aI13376588
aI13343827
aI13343835
aI13343837
aI13540448
aI13540454
aI13354173
aI13343865
aI13485247
aI13540478
aI13348715
aI13507722
aI13343889
aI13507735
aI13409434
aI13343919
aI13442232
aI13376698
aI13409473
aI13540555
aI13376720
aI13343960
aI13540572
aI13475064
aI13376768
aI13475073
aI13409564
aI13344045
aI13344054
aI13442376
aI13376841
aI13507915
aI13442384
aI13457976
aI13540699
aI13475166
aI13344097
aI13507946
aI13409645
aI13442415
aI13475194
aI13376891
aI13475202
aI13442441
aI13409675
aI13540753
aI13507989
aI13545370
aI13442465
aI13344170
aI13344177
aI13344183
aI13521537
aI13442493
aI13376966
aI13540812
aI13508045
aI13540818
aI13409748
aI13475288
aI13376990
aI13344231
aI13475311
aI13475320
aI13344259
aI13508103
aI13409801
aI13344270
aI13508111
aI13475347
aI13540884
aI13540896
aI13377073
aI13442612
aI13409853
aI13540929
aI13475404
aI13409869
aI13442639
aI13442643
aI13344347
aI13377116
aI13442656
aI13540961
aI13508194
aI13442666
aI13475435
aI13344367
aI13508208
aI13475444
aI13344379
aI13475452
aI13540998
aI13475464
aI13344400
aI13442707
aI13508260
aI13442727
aI13409962
aI13475502
aI13344431
aI13508275
aI13344436
aI13377217
aI13475523
aI13442756
aI13442759
aI13508299
aI13541070
aI13409999
aI13344471
aI13377249
aI13442788
aI13508326
aI13348818
aI13541103
aI13508338
aI13344499
aI13541115
aI13442822
aI13377294
aI13377296
aI13442836
aI13387054
aI13541142
aI13541146
aI13442847
aI13541153
aI13508386
aI13475619
aI13475629
aI13344560
aI13475634
aI13508403
aI13475651
aI13377349
aI13541200
aI13508446
aI13541218
aI13442919
aI13475697
aI13475703
aI13410171
aI13475716
aI13442949
aI13344648
aI13344650
aI13496301
aI13377431
aI13508504
aI13377435
aI13410207
aI13541281
aI13475750
aI13541289
aI13475754
aI13344684
aI13475760
aI13410225
aI13410230
aI13377469
aI13508543
aI13443014
aI13475796
aI13541339
aI13541358
aI13475827
aI13344758
aI13541373
aI13508617
aI13410316
aI13443085
aI13410329
aI13475872
aI13508646
aI13398023
aI13475890
aI13541434
aI13344846
aI13475923
aI13443156
aI13377627
aI13541472
aI13508707
aI13508711
aI13541483
aI13344885
aI13410423
aI13377662
aI13344895
aI13377669
aI13475974
aI13508753
aI13410452
aI13410458
aI13443231
aI13541537
aI13344936
aI13541551
aI13476016
aI13443249
aI13476018
aI13476020
aI13377727
aI13344979
aI13508823
aI13508836
aI13508841
aI13377781
aI13508858
aI13541627
aI13476093
aI13476099
aI13410565
aI13508874
aI13541643
aI13476112
aI13541649
aI13476116
aI13339347
aI13410597
aI13377832
aI13345067
aI13377838
aI13541693
aI13410632
aI13443410
aI13345111
aI13541721
aI13354383
aI13443420
aI13508964
aI13410663
aI13436306
aI13481197
aI13345142
aI13377914
aI13476219
aI13541760
aI13410689
aI13443477
aI13443485
aI13541792
aI13410722
aI13443500
aI13345197
aI13377966
aI13377982
aI13476289
aI13410765
aI13509073
aI13476310
aI13368814
aI13443548
aI13410783
aI13541870
aI13410802
aI13443591
aI13476361
aI13410831
aI13410842
aI13410848
aI13509153
aI13476387
aI13443626
aI13345329
aI13541939
aI13509176
aI13541948
aI13476417
aI13501878
aI13443654
aI13509203
aI13476438
aI13443686
aI13476455
aI13345384
aI13509227
aI13476467
aI13345403
aI13542019
aI13509256
aI13345418
aI13542033
aI13345426
aI13345436
aI13378205
aI13542051
aI13443754
aI13476531
aI13542068
aI13509301
aI13443773
aI13476544
aI13509313
aI13509327
aI13378261
aI13411030
aI13378269
aI13476577
aI13345508
aI13411045
aI13443824
aI13509362
aI13509375
aI13378311
aI13345548
aI13443853
aI13542161
aI13476627
aI13501913
aI13509400
aI13542186
aI13509421
aI13345584
aI13411121
aI13443897
aI13509435
aI13509448
aI13509451
aI13476699
aI13443933
aI13509497
aI13542275
aI13411207
aI13476755
aI13345693
aI13476770
aI13542312
aI13509547
aI13509573
aI13345748
aI13509590
aI13378519
aI13444070
aI13542378
aI13542387
aI13509632
aI13476865
aI13444098
aI13476870
aI13518337
aI13542412
aI13345805
aI13509650
aI13534723
aI13463727
aI13542430
aI13476899
aI13509669
aI13411366
aI13378599
aI13476906
aI13542443
aI13476917
aI13345851
aI13345854
aI13444162
aI13411403
aI13476949
aI13444183
aI13378652
aI13378657
aI13542506
aI13411438
aI13476981
aI13345921
aI13411467
aI13378724
aI13444225
aI13378742
aI13411519
aI13444288
aI13509847
aI13411560
aI13378795
aI13509874
aI13343614
aI13346038
aI13346048
aI13411585
aI13346062
aI13411599
aI13378833
aI13378847
aI13378851
aI13485619
aI13509941
aI13463771
aI13509947
aI13411645
aI13411653
aI13509966
aI13542735
aI13411669
aI13477210
aI13444445
aI13411683
aI13346149
aI13346153
aI13444474
aI13378945
aI13542795
aI13477262
aI13346193
aI13444498
aI13477271
aI13444509
aI13346208
aI13378982
aI13379001
aI13346237
aI13477317
aI13411784
aI13542863
aI13510120
aI13436498
aI13346288
aI13444594
aI13510133
aI13346294
aI13444610
aI13542915
aI13477383
aI13510152
aI13346316
aI13379087
aI13477393
aI13540270
aI13542943
aI13510178
aI13379107
aI13477414
aI13346348
aI13411895
aI13477433
aI13411904
aI13420128
aI13346370
aI13411910
aI13379148
aI13543002
aI13444705
aI13543019
aI13411954
aI13510265
aI13477499
aI13346431
aI13411980
aI13510286
aI13346447
aI13444756
aI13444774
aI13510316
aI13477556
aI13444790
aI13379259
aI13543106
aI13510342
aI13510345
aI13412055
aI13444826
aI13510364
aI13543135
aI13510378
aI13379308
aI13412088
aI13379325
aI13444862
aI13412102
aI13444873
aI13346576
aI13543189
aI13477654
aI13412120
aI13412132
aI13412137
aI13444908
aI13379379
aI13346613
aI13477686
aI13477690
aI13444925
aI13510464
aI13477697
aI13379403
aI13346649
aI13477724
aI13477728
aI13412196
aI13444965
aI13346665
aI13444972
aI13506344
aI13543280
aI13444984
aI13412220
aI13477766
aI13431105
aI13445002
aI13477773
aI13346708
aI13346726
aI13510574
aI13379510
aI13412289
aI13379523
aI13510598
aI13445069
aI13412303
aI13346775
aI13445084
aI13346781
aI13469349
aI13346794
aI13477875
aI13510644
aI13420201
aI13445112
aI13346810
aI13412348
aI13445125
aI13543434
aI13379601
aI13496665
aI13510680
aI13346844
aI13371056
aI13543484
aI13412413
aI13543488
aI13346881
aI13510730
aI13477965
aI13346896
aI13510737
aI13445203
aI13510740
aI13445214
aI13543521
aI13346920
aI13412471
aI13543544
aI13445245
aI13445249
aI13379717
aI13379722
aI13510813
aI13379751
aI13409308
aI13379762
aI13412540
aI13445310
aI13379775
aI13347013
aI13445326
aI13543633
aI13412574
aI13379812
aI13478117
aI13347052
aI13510901
aI13510903
aI13510907
aI13379843
aI13543684
aI13478151
aI13510922
aI13347087
aI13478160
aI13403864
aI13478163
aI13478177
aI13412645
aI13478185
aI13510955
aI13379886
aI13445427
aI13347125
aI13478204
aI13445437
aI13510989
aI13412686
aI13543767
aI13445467
aI13445474
aI13467080
aI13511015
aI13347176
aI13379952
aI13543795
aI13412729
aI13379968
aI13347210
aI13445520
aI13412755
aI13478300
aI13412767
aI13511072
aI13543853
aI13412790
aI13543866
aI13445564
aI13524044
aI13436663
aI13511116
aI13347302
aI13380073
aI13445619
aI13511159
aI13412858
aI13478398
aI13543944
aI13511188
aI13511193
aI13380129
aI13511208
aI13412910
aI13347375
aI13445681
aI13511232
aI13478486
aI13445719
aI13380186
aI13412955
aI13511260
aI13511262
aI13472544
aI13360000
aI13544034
aI13511274
aI13511282
aI13380220
aI13544063
aI13511300
aI13445766
aI13380231
aI13380262
aI13347498
aI13347501
aI13413047
aI13347513
aI13445820
aI13511375
aI13347540
aI13413083
aI13478629
aI13544182
aI13413111
aI13445882
aI13478656
aI13380359
aI13347595
aI13413132
aI13380368
aI13544211
aI13478680
aI13413149
aI13511455
aI13544225
aI13380388
aI13478698
aI13511468
aI13413165
aI13511484
aI13544259
aI13380420
aI13445970
aI13544279
aI13347673
aI13478769
aI13347698
aI13511543
aI13544314
aI13426726
aI13446020
aI13478790
aI13544332
aI13413266
aI13446043
aI13544348
aI13347742
aI13380518
aI13478825
aI13511596
aI13380528
aI13380541
aI13413314
aI13380563
aI13347801
aI13544411
aI13544413
aI13446110
aI13413344
aI13544418
aI13446118
aI13544430
aI13458600
aI13478908
aI13413375
aI13478923
aI13380623
aI13544464
aI13511717
aI13446194
aI13446200
aI13347899
aI13446207
aI13404001
aI13409464
aI13413461
aI13511770
aI13446241
aI13511783
aI13479029
aI13479034
aI13380738
aI13446276
aI13511817
aI13544588
aI13544604
aI13544615
aI13544627
aI13511862
aI13479098
aI13511879
aI13348044
aI13511886
aI13348050
aI13413589
aI13380828
aI13544675
aI13380837
aI13544683
aI13380848
aI13431336
aI13479155
aI13413621
aI13348089
aI13348094
aI13502336
aI13544706
aI13479173
aI13469570
aI13544718
aI13380881
aI13413656
aI13544736
aI13544741
aI13507804
aI13446447
aI13348150
aI13479226
aI13479235
aI13512014
aI13544786
aI13348179
aI13413721
aI13446495
aI13380962
aI13413731
aI13544806
aI13518737
aI13544812
aI13413742
aI13380988
aI13479293
aI13348222
aI13381004
aI13413778
aI13479324
aI13512110
aI13413813
aI13479362
aI13381064
aI13479377
aI13381076
aI13348312
aI13348327
aI13446640
aI13446645
aI13512187
aI13413887
aI13544961
aI13544963
aI13512198
aI13512203
aI13479441
aI13446675
aI13381143
aI13381150
aI13413922
aI13446701
aI13381168
aI13479480
aI13479485
aI13512267
aI13381199
aI13479518
aI13512299
aI13446771
aI13414004
aI13446781
aI13381248
aI13414033
aI13545108
aI13479574
aI13479578
aI13414049
aI13545126
aI13446828
aI13512369
aI13545145
aI13512378
aI13545147
aI13545151
aI13381316
aI13545161
aI13479627
aI13545177
aI13545179
aI13479651
aI13381348
aI13338578
aI13414127
aI13414133
aI13414135
aI13381368
aI13545211
aI13414140
aI13545215
aI13446913
aI13545223
aI13479689
aI13545227
aI13545231
aI13381392
aI13479706
aI13381404
aI13446941
aI13545248
aI13348641
aI13512482
aI13414181
aI13479722
aI13545260
aI13512495
aI13381429
aI13545271
aI13545273
aI13348669
aI13545279
aI13545283
aI13381444
aI13512521
aI13414235
aI13545311
aI13348705
aI13447013
aI13545319
aI13545321
aI13545323
aI13545327
aI13545329
aI13479796
aI13381493
aI13545339
aI13414273
aI13381513
aI13512588
aI13545359
aI13414288
aI13545361
aI13545363
aI13545368
aI13479834
aI13545372
aI13545391
aI13502451
aI13545403
aI13545405
aI13414348
aI13512653
aI13381586
aI13447125
aI13381624
aI13512701
aI13348865
aI13447178
aI13348886
aI13447201
aI13507931
aI13512743
aI13447218
aI13414456
aI13519513
aI13414477
aI13381711
aI13381724
aI13447269
aI13381739
aI13512821
aI13348988
aI13447303
aI13349003
aI13381775
aI13512853
aI13349017
aI13414565
aI13480102
aI13447335
aI13512872
aI13381803
aI13414577
aI13447349
aI13480120
aI13414590
aI13349067
aI13480142
aI13344122
aI13480164
aI13381865
aI13447405
aI13447412
aI13349116
aI13512961
aI13480198
aI13381916
aI13414687
aI13447466
aI13480238
aI13376905
aI13480251
aI13447496
aI13480266
aI13524365
aI13414736
aI13513049
aI13349219
aI13480293
aI13513075
aI13355073
aI13480329
aI13513100
aI13447575
aI13480348
aI13349286
aI13382061
aI13480375
aI13480378
aI13414849
aI13480388
aI13447623
aI13480393
aI13382095
aI13382114
aI13447654
aI13447665
aI13480437
aI13480447
aI13414913
aI13382150
aI13447698
aI13447702
aI13480494
aI13529865
aI13480507
aI13414978
aI13349443
aI13382220
aI13480529
aI13349467
aI13415005
aI13513317
aI13513338
aI13382271
aI13447819
aI13382284
aI13513360
aI13447825
aI13447834
aI13349533
aI13480625
aI13382325
aI13415102
aI13382338
aI13480645
aI13513417
aI13349578
aI13518968
aI13513432
aI13382362
aI13415133
aI13480692
aI13447928
aI13447932
aI13480703
aI13480707
aI13398828
aI13447948
aI13382415
aI13513508
aI13447981
aI13480767
aI13453452
aI13480778
aI13529912
aI13349716
aI13513558
aI13360612
aI13382491
aI13480813
aI13448047
aI13349747
aI13382520
aI13415290
aI13492262
aI13355157
aI13480832
aI13513607
aI13448075
aI13349772
aI13415322
aI13513630
aI13480865
aI13448099
aI13349800
aI13448105
aI13382573
aI13513650
aI13513672
aI13349836
aI13349840
aI13382614
aI13382626
aI13513711
aI13480947
aI13513716
aI13382656
aI13349718
aI13480976
aI13480982
aI13448215
aI13415451
aI13382691
aI13513764
aI13382693
aI13448231
aI13481000
aI13349931
aI13415477
aI13502644
aI13513792
aI13382726
aI13464418
aI13513810
aI13415514
aI13481066
aI13513836
aI13448305
aI13382770
aI13481076
aI13415541
aI13442580
aI13513852
aI13350017
aI13448326
aI13448333
aI13382811
aI13350046
aI13415587
aI13415595
aI13382833
aI13481145
aI13513915
aI13468268
aI13350084
aI13350086
aI13350105
aI13382889
aI13491751
aI13350125
aI13415663
aI13513980
aI13513983
aI13448452
aI13448456
aI13448458
aI13529986
aI13514002
aI13415705
aI13382938
aI13448476
aI13514013
aI13514017
aI13481250
aI13448489
aI13382954
aI13448492
aI13514030
aI13529375
aI13382967
aI13350204
aI13448526
aI13382993
aI13350227
aI13481313
aI13420774
aI13383025
aI13481330
aI13415799
aI13448576
aI13350273
aI13481354
aI13481356
aI13350288
aI13513626
aI13383079
aI13415855
aI13481398
aI13448634
aI13383099
aI13448638
aI13514189
aI13383120
aI13415891
aI13514212
aI13383143
aI13415913
aI13350379
aI13448684
aI13350393
aI13514235
aI13393496
aI13383209
aI13404995
aI13350459
aI13350465
aI13481541
aI13350476
aI13416016
aI13481564
aI13416029
aI13448801
aI13514340
aI13383271
aI13448812
aI13350511
aI13514353
aI13416050
aI13383283
aI13481588
aI13383294
aI13350527
aI13481605
aI13448838
aI13514388
aI13416086
aI13448857
aI13350554
aI13514395
aI13350558
aI13448869
aI13448873
aI13415368
aI13383355
aI13481661
aI13416152
aI13448932
aI13514469
aI13448934
aI13426301
aI13481716
aI13350645
aI13514487
aI13514489
aI13383423
aI13481730
aI13383427
aI13409995
aI13448969
aI13448974
aI13481749
aI13448990
aI13514527
aI13416224
aI13350693
aI13416238
aI13383481
aI13449020
aI13514566
aI13383504
aI13514582
aI13514601
aI13416317
aI13449086
aI13350787
aI13481860
aI13481868
aI13416340
aI13383591
aI13449131
aI13416375
aI13514684
aI13449150
aI13514704
aI13350867
aI13416405
aI13383638
aI13481945
aI13449182
aI13514722
aI13449194
aI13514735
aI13449211
aI13514750
aI13350925
aI13482000
aI13514773
aI13508271
aI13383709
aI13416487
aI13514797
aI13482030
aI13514822
aI13535587
aI13482073
aI13416548
aI13449322
aI13449353
aI13383819
aI13383834
aI13449376
aI13482145
aI13351078
aI13416616
aI13482155
aI13514928
aI13449411
aI13449415
aI13383888
aI13482195
aI13514967
aI13482206
aI13449449
aI13351152
aI13351155
aI13514998
aI13464617
aI13449470
aI13449475
aI13449481
aI13416716
aI13515023
aI13515028
aI13351190
aI13449495
aI13515033
aI13383966
aI13515059
aI13470091
aI13515078
aI13351239
aI13482320
aI13416786
aI13515100
aI13351276
aI13449591
aI13416828
aI13515134
aI13515142
aI13416840
aI13449614
aI13365743
aI13515162
aI13416868
aI13384112
aI13491955
aI13449653
aI13449658
aI13482430
aI13351360
aI13449668
aI13434486
aI13384158
aI13416932
aI13351404
aI13384186
aI13464661
aI13384193
aI13515266
aI13482504
aI13351437
aI13482523
aI13515307
aI13417017
aI13515330
aI13417032
aI13449806
aI13351505
aI13459214
aI13351525
aI13515366
aI13482601
aI13482627
aI13448300
aI13515419
aI13384349
aI13384352
aI13515433
aI13449900
aI13417138
aI13515448
aI13351618
aI13449923
aI13384396
aI13351635
aI13351642
aI13384414
aI13515490
aI13417189
aI13384432
aI13449970
aI13515509
aI13384446
aI13482754
aI13449996
aI13515537
aI13351701
aI13515550
aI13541168
aI13515560
aI13450030
aI13450035
aI13515577
aI13530250
aI13384518
aI13351757
aI13450062
aI13515617
aI13351793
aI13384565
aI13450109
aI13351810
aI13351824
aI13384593
aI13450134
aI13351835
aI13450150
aI13524807
aI13515694
aI13482927
aI13384624
aI13417396
aI13384630
aI13351880
aI13482954
aI13448355
aI13450196
aI13417429
aI13384662
aI13339133
aI13417457
aI13384690
aI13483000
aI13515769
aI13417478
aI13483016
aI13384715
aI13450254
aI13384720
aI13483025
aI13384725
aI13417501
aI13384737
aI13450278
aI13450289
aI13483071
aI13450310
aI13384789
aI13352027
aI13450333
aI13483105
aI13417570
aI13483126
aI13384829
aI13450378
aI13352079
aI13366467
aI13417629
aI13448390
aI13417641
aI13384879
aI13483188
aI13537077
aI13417665
aI13352132
aI13384904
aI13442935
aI13450445
aI13483219
aI13417689
aI13515999
aI13483233
aI13516017
aI13352183
aI13450493
aI13384961
aI13352202
aI13516053
aI13450519
aI13516068
aI13384998
aI13385020
aI13422513
aI13516127
aI13483360
aI13385065
aI13385070
aI13417861
aI13352327
aI13483407
aI13417876
aI13352347
aI13516193
aI13352356
aI13450674
aI13483450
aI13483457
aI13385154
aI13516227
aI13450703
aI13417937
aI13352403
aI13417946
aI13352412
aI13352425
aI13385197
aI13417976
aI13352443
aI13516285
aI13450754
aI13450766
aI13432067
aI13516325
aI13352488
aI13516335
aI13418037
aI13352504
aI13418046
aI13385289
aI13418068
aI13352535
aI13418072
aI13516385
aI13399313
aI13352556
aI13516413
aI13516432
aI13516443
aI13418142
aI13450916
aI13516463
aI13418162
aI13352652
aI13450957
aI13483726
aI13516499
aI13516505
aI13385435
aI13352670
aI13385444
aI13450988
aI13418225
aI13450995
aI13516535
aI13483769
aI13451016
aI13483785
aI13352714
aI13418251
aI13483790
aI13418256
aI13483795
aI13483801
aI13352731
aI13418272
aI13451052
aI13352751
aI13385522
aI13483830
aI13385534
aI13385547
aI13516630
aI13385560
aI13451098
aI13418331
aI13483870
aI13516639
aI13451105
aI13352803
aI13483876
aI13385573
aI13516654
aI13418361
aI13516672
aI13352842
aI13418386
aI13352851
aI13453977
aI13483936
aI13483942
aI13510915
aI13352874
aI13516716
aI13483958
aI13451202
aI13516749
aI13399621
aI13516751
aI13385680
aI13352917
aI13385690
aI13484009
aI13508605
aI13451250
aI13339305
aI13352959
aI13418497
aI13484034
aI13451272
aI13484045
aI13516820
aI13484053
aI13418519
aI13385752
aI13352988
aI13352991
aI13418529
aI13352998
aI13353009
aI13418547
aI13353022
aI13385791
aI13514081
aI13451338
aI13418578
aI13451350
aI13385818
aI13516900
aI13516915
aI13385850
aI13385857
aI13484162
aI13418630
aI13353099
aI13451404
aI13451410
aI13484185
aI13353115
aI13451424
aI13385892
aI13484207
aI13418673
aI13516991
aI13385921
aI13418692
aI13484230
aI13451465
aI13418699
aI13385935
aI13418708
aI13517020
aI13484255
aI13451488
aI13385956
aI13525030
aI13517030
aI13484272
aI13484275
aI13385972
aI13530494
aI13418745
aI13399423
aI13418749
aI13515291
aI13353220
aI13451525
aI13415809
aI13517067
aI13418772
aI13451543
aI13517093
aI13451568
aI13418806
aI13353275
aI13353297
aI13451603
aI13353308
aI13517149
aI13451622
aI13484393
aI13353323
aI13386109
aI13353342
aI13366678
aI13353353
aI13418891
aI13451661
aI13386129
aI13418900
aI13353370
aI13386146
aI13517220
aI13353381
aI13451687
aI13418920
aI13517236
aI13451709
aI13517246
aI13484487
aI13353420
aI13517265
aI13386202
aI13484515
aI13451752
aI13484521
aI13517290
aI13386220
aI13517299
aI13419000
aI13503231
aI13419012
aI13451782
aI13451786
aI13419021
aI13386255
aI13451798
aI13451807
aI13517344
aI13449833
aI13401718
aI13484608
aI13419075
aI13484617
aI13386317
aI13386321
aI13484631
aI13517400
aI13419099
aI13484641
aI13386346
aI13419116
aI13353583
aI13451893
aI13484666
aI13419142
aI13517454
aI13386385
aI13386389
aI13451928
aI13451932
aI13419168
aI13353633
aI13419192
aI13484733
aI13451969
aI13451972
aI13386469
aI13517562
aI13419271
aI13386511
aI13419281
aI13484835
aI13452068
aI13517610
aI13353781
aI13419325
aI13386559
aI13452100
aI13353814
aI13419352
aI13517671
aI13452140
aI13517677
aI13517686
aI13419385
aI13484924
aI13353864
aI13353871
aI13452179
aI13484948
aI13419414
aI13386659
aI13517734
aI13517741
aI13353915
aI13465077
aI13353929
aI13419467
aI13452236
aI13386720
aI13419492
aI13517799
aI13419501
aI13419504
aI13353985
aI13452296
aI13386761
aI13485072
aI13517843
aI13419541
aI13452310
aI13517859
aI13485094
aI13344946
aI13452343
aI13485126
aI13386828
aI13517904
aI13358197
aI13485152
aI13452387
aI13386857
aI13452401
aI13386873
aI13419646
aI13419672
aI13452441
aI13386916
aI13339506
aI13485231
aI13452477
aI13386943
aI13452481
aI13485255
aI13452509
aI13518048
aI13452515
aI13485286
aI13518058
aI13386988
aI13419757
aI13419766
aI13452538
aI13485318
aI13518087
aI13361367
aI13419796
aI13452573
aI13419822
aI13354288
aI13518130
aI13354294
aI13419834
aI13485377
aI13452616
aI13354314
aI13419854
aI13452624
aI13452629
aI13518167
aI13354332
aI13452643
aI13387109
aI13485418
aI13452656
aI13485425
aI13354356
aI13419898
aI13518206
aI13485441
aI13387140
aI13486998
aI13452680
aI13485454
aI13419919
aI13387155
aI13452701
aI13387167
aI13485482
aI13485486
aI13485490
aI13387187
aI13518278
aI13387209
aI13419983
aI13387223
aI13452760
aI13503396
aI13452763
aI13485532
aI13419999
aI13354475
aI13387254
aI13485559
aI13518330
aI13354496
aI13420033
aI13452804
aI13485584
aI13387308
aI13354541
aI13452851
aI13518400
aI13387331
aI13452870
aI13518412
aI13485653
aI13518422
aI13420123
aI13387357
aI13518432
aI13420143
aI13487039
aI13485693
aI13354627
aI13485700
aI13485704
aI13485712
aI13518483
aI13452949
aI13387415
aI13518488
aI13354650
aI13387421
aI13387424
aI13452961
aI13387433
aI13452977
aI13354674
aI13485756
aI13485761
aI13453004
aI13387476
aI13518555
aI13354721
aI13453044
aI13485817
aI13420284
aI13354749
aI13485840
aI13387549
aI13518625
aI13420322
aI13485859
aI13518629
aI13420328
aI13518633
aI13354794
aI13387582
aI13354817
aI13420357
aI13453127
aI13387596
aI13453135
aI13387604
aI13518682
aI13485926
aI13453160
aI13443389
aI13387639
aI13354872
aI13387656
aI13420425
aI13334167
aI13420430
aI13354897
aI13420442
aI13354918
aI13387687
aI13485992
aI13420460
aI13453231
aI13387698
aI13481630
aI13518776
aI13486019
aI13518794
aI13372407
aI13453276
aI13518813
aI13518824
aI13354990
aI13453297
aI13453302
aI13453308
aI13355013
aI13355018
aI13453324
aI13453326
aI13486098
aI13387799
aI13420570
aI13486110
aI13453346
aI13355044
aI13387816
aI13486126
aI13387824
aI13453377
aI13486157
aI13387855
aI13394275
aI13518932
aI13420631
aI13518939
aI13420657
aI13387891
aI13355128
aI13387900
aI13453440
aI13355148
aI13387919
aI13518997
aI13387928
aI13355169
aI13519012
aI13453478
aI13486252
aI13453513
aI13420748
aI13355228
aI13427066
aI13453540
aI13519078
aI13519100
aI13519110
aI13486345
aI13519126
aI13388055
aI13519131
aI13453600
aI13355300
aI13519145
aI13519150
aI13486386
aI13355317
aI13388852
aI13388090
aI13420860
aI13355329
aI13388100
aI13519183
aI13486418
aI13519190
aI13420890
aI13486435
aI13486443
aI13519213
aI13420927
aI13453701
aI13420939
aI13388172
aI13453709
aI13388183
aI13486501
aI13355436
aI13453741
aI13420985
aI13355450
aI13388219
aI13453762
aI13420998
aI13388232
aI13519305
aI13453771
aI13388245
aI13519324
aI13421032
aI13486571
aI13453804
aI13421041
aI13388275
aI13486584
aI13453827
aI13486603
aI13486628
aI13388329
aI13388333
aI13519408
aI13453880
aI13486663
aI13519437
aI13486674
aI13388372
aI13388386
aI13355640
aI13388414
aI13519496
aI13492676
aI13421211
aI13421228
aI13355706
aI13486782
aI13355712
aI13486789
aI13388494
aI13454043
aI13355762
aI13454083
aI13388548
aI13454096
aI13421330
aI13486867
aI13383470
aI13388570
aI13486881
aI13421348
aI13519658
aI13388600
aI13388605
aI13519693
aI13388625
aI13454164
aI13388638
aI13486943
aI13454176
aI13519719
aI13388653
aI13486973
aI13519743
aI13486982
aI13388686
aI13519760
aI13454230
aI13519772
aI13421473
aI13388714
aI13443570
aI13454271
aI13355970
aI13487046
aI13388748
aI13399885
aI13394424
aI13487067
aI13421733
aI13487079
aI13421551
aI13519860
aI13487113
aI13519884
aI13388813
aI13421582
aI13356051
aI13427204
aI13356066
aI13541895
aI13454383
aI13519923
aI13487156
aI13519928
aI13519939
aI13421636
aI13356110
aI13388880
aI13454428
aI13454440
aI13356141
aI13487222
aI13383529
aI13454457
aI13421692
aI13520001
aI13487234
aI13345173
aI13356169
aI13454478
aI13388944
aI13454492
aI13388965
aI13356199
aI13388970
aI13356210
aI13520054
aI13388984
aI13487311
aI13454546
aI13443619
aI13520085
aI13389017
aI13525541
aI13389027
aI13454572
aI13356270
aI13520112
aI13487347
aI13421812
aI13389053
aI13487367
aI13389066
aI13389076
aI13449092
aI13421853
aI13487392
aI13389093
aI13520171
aI13454641
aI13520194
aI13520198
aI13389129
aI13545114
aI13454669
aI13476408
aI13421906
aI13389146
aI13454683
aI13536485
aI13389156
aI13520234
aI13454705
aI13487485
aI13356415
aI13356429
aI13520275
aI13356445
aI13520293
aI13421990
aI13487547
aI13454780
aI13356477
aI13520323
aI13389270
aI13389276
aI13422048
aI13356521
aI13422062
aI13487357
aI13520369
aI13487609
aI13520379
aI13454857
aI13356558
aI13367213
aI13487642
aI13389343
aI13520418
aI13487653
aI13422130
aI13389370
aI13356605
aI13422145
aI13487683
aI13389386
aI13520471
aI13454940
aI13487709
aI13389412
aI13487721
aI13507768
aI13454975
aI13487754
aI13356690
aI13389461
aI13422234
aI13455005
aI13422243
aI13520552
aI13501223
aI13520596
aI13334478
aI13520607
aI13356775
aI13422315
aI13389550
aI13389555
aI13422327
aI13356818
aI13378179
aI13356820
aI13487896
aI13389593
aI13487903
aI13520672
aI13422378
aI13389615
aI13422398
aI13520708
aI13487941
aI13525644
aI13389642
aI13422411
aI13356882
aI13356893
aI13455198
aI13520744
aI13356913
aI13487987
aI13455224
aI13461949
aI13422466
aI13422479
aI13389713
aI13520797
aI13488039
aI13422504
aI13422511
aI13455281
aI13520826
aI13488066
aI13488068
aI13357006
aI13389780
aI13455325
aI13416443
aI13488102
aI13389138
aI13357038
aI13422579
aI13389812
aI13357060
aI13520906
aI13488152
aI13422619
aI13357100
aI13389869
aI13520947
aI13394615
aI13488205
aI13422673
aI13357140
aI13389914
aI13520991
aI13389924
aI13422705
aI13488247
aI13422716
aI13416469
aI13488256
aI13345472
aI13455497
aI13389964
aI13521038
aI13357201
aI13422746
aI13357214
aI13421587
aI13422760
aI13357234
aI13521075
aI13400095
aI13422786
aI13503423
aI13357260
aI13488344
aI13390041
aI13455581
aI13521118
aI13422824
aI13422843
aI13422849
aI13471106
aI13455638
aI13357339
aI13422876
aI13488413
aI13390112
aI13422910
aI13521219
aI13521232
aI13390161
aI13422947
aI13455728
aI13422962
aI13521267
aI13357435
aI13525738
aI13521289
aI13521293
aI13521306
aI13423007
aI13390254
aI13488563
aI13455798
aI13521336
aI13357502
aI13390271
aI13455810
aI13521349
aI13488585
aI13455827
aI13521364
aI13455835
aI13390305
aI13488614
aI13525757
aI13521406
aI13423122
aI13357589
aI13521431
aI13390367
aI13455910
aI13509383
aI13455917
aI13488687
aI13521461
aI13423162
aI13357635
aI13455953
aI13488727
aI13455963
aI13521505
aI13423217
aI13357684
aI13357697
aI13488770
aI13357701
aI13521546
aI13390481
aI13423250
aI13357717
aI13488804
aI13456039
aI13390506
aI13357743
aI13390512
aI13521585
aI13423288
aI13521596
aI13456067
aI13488852
aI13334652
aI13390570
aI13357812
aI13456126
aI13390591
aI13357852
aI13456162
aI13405660
aI13390636
aI13488943
aI13456185
aI13423435
aI13372898
aI13521751
aI13357914
aI13488990
aI13423456
aI13456226
aI13456228
aI13489014
aI13456257
aI13521796
aI13456263
aI13489035
aI13456286
aI13423520
aI13356529
aI13521832
aI13357993
aI13390773
aI13489101
aI13390806
aI13489115
aI13521888
aI13449382
aI13456367
aI13358064
aI13390835
aI13423605
aI13489150
aI13390852
aI13358088
aI13358092
aI13423635
aI13521943
aI13423643
aI13358111
aI13423650
aI13390883
aI13521959
aI13423659
aI13456436
aI13442349
aI13358147
aI13423697
aI13358167
aI13489240
aI13456484
aI13390965
aI13390972
aI13358212
aI13522065
aI13358232
aI13391004
aI13358245
aI13423784
aI13358254
aI13522103
aI13358277
aI13489352
aI13391051
aI13489365
aI13423833
aI13489381
aI13358311
aI13489388
aI13400274
aI13391090
aI13358329
aI13423867
aI13358333
aI13423873
aI13358339
aI13391110
aI13489426
aI13345667
aI13522207
aI13522220
aI13423918
aI13358388
aI13423942
aI13465827
aI13423967
aI13423978
aI13456759
aI13456769
aI13358475
aI13456783
aI13456790
aI13424031
aI13424039
aI13456820
aI13489599
aI13522372
aI13531384
aI13362083
aI13456864
aI13391334
aI13522407
aI13358573
aI13456889
aI13358588
aI13489661
aI13345707
aI13456901
aI13358602
aI13391373
aI13522449
aI13424146
aI13456915
aI13522463
aI13489705
aI13391402
aI13456940
aI13489713
aI13489720
aI13358654
aI13391429
aI13424217
aI13358695
aI13391467
aI13489772
aI13358704
aI13424241
aI13522550
aI13457018
aI13504106
aI13358721
aI13424262
aI13391498
aI13424273
aI13489811
aI13424277
aI13522587
aI13424293
aI13457066
aI13424304
aI13391538
aI13489848
aI13424315
aI13358788
aI13424332
aI13457109
aI13522652
aI13422203
aI13358821
aI13457134
aI13457139
aI13424383
aI13391619
aI13391630
aI13424399
aI13358868
aI13358872
aI13504132
aI13424413
aI13358889
aI13391667
aI13489976
aI13391675
aI13520522
aI13489992
aI13457229
aI13391697
aI13358938
aI13457251
aI13522794
aI13391729
aI13457267
aI13358966
aI13490040
aI13522816
aI13457290
aI13391759
aI13457297
aI13490091
aI13490103
aI13457337
aI13359039
aI13457347
aI13457373
aI13424609
aI13457379
aI13359076
aI13522920
aI13449554
aI13391858
aI13457405
aI13457409
aI13391882
aI13359115
aI13391897
aI13359133
aI13391902
aI13490210
aI13536945
aI13424697
aI13523004
aI13490249
aI13359181
aI13424723
aI13523038
aI13523051
aI13490291
aI13523061
aI13490301
aI13424766
aI13490336
aI13476891
aI13424812
aI13490358
aI13457597
aI13392070
aI13392075
aI13359308
aI13490383
aI13424849
aI13523169
aI13457642
aI13523186
aI13424886
aI13457658
aI13490441
aI13424911
aI13392156
aI13518770
aI13359399
aI13523241
aI13424943
aI13490493
aI13523283
aI13490516
aI13457753
aI13523296
aI13425001
aI13392235
aI13392237
aI13490553
aI13392251
aI13392259
aI13359499
aI13523340
aI13392274
aI13392286
aI13392288
aI13340400
aI13392290
aI13457835
aI13490604
aI13425070
aI13392304
aI13392306
aI13490616
aI13392313
aI13359555
aI13392324
aI13457862
aI13523402
aI13457870
aI13392342
aI13490648
aI13392347
aI13359585
aI13457896
aI13523435
aI13425133
aI13490677
aI13523457
aI13425173
aI13359641
aI13359650
aI13457959
aI13544966
aI13490738
aI13384115
aI13490744
aI13425209
aI13425213
aI13359679
aI13542497
aI13359689
aI13490767
aI13490771
aI13359709
aI13458018
aI13523562
aI13458028
aI13523566
aI13359730
aI13490817
aI13425288
aI13359758
aI13392531
aI13359767
aI13425312
aI13392212
aI13490865
aI13425342
aI13490884
aI13490890
aI13425359
aI13523675
aI13359844
aI13490919
aI13523692
aI13490943
aI13425415
aI13359880
aI13523721
aI13425422
aI13490959
aI13425426
aI13458197
aI13392664
aI13523738
aI13491005
aI13359935
aI13392706
aI13491011
aI13458245
aI13392711
aI13425486
aI13359951
aI13491026
aI13458261
aI13425506
aI13359974
aI13392760
aI13359998
aI13458304
aI13491087
aI13392816
aI13458361
aI13458371
aI13425604
aI13425612
aI13392850
aI13458388
aI13523935
aI13491173
aI13523942
aI13392881
aI13523957
aI13425654
aI13360125
aI13458432
aI13360156
aI13458464
aI13392934
aI13395122
aI13392944
aI13360177
aI13458487
aI13360184
aI13524033
aI13458508
aI13460664
aI13392990
aI13458527
aI13360224
aI13491298
aI13425769
aI13491309
aI13425775
aI13491313
aI13360250
aI13425789
aI13360257
aI13458563
aI13425804
aI13458577
aI13393042
aI13458579
aI13425812
aI13360284
aI13384219
aI13360292
aI13524135
aI13425832
aI13458602
aI13393067
aI13360309
aI13393081
aI13360316
aI13393099
aI13524174
aI13393103
aI13425877
aI13491418
aI13360347
aI13524193
aI13491439
aI13360381
aI13524222
aI13360387
aI13406082
aI13466157
aI13425937
aI13458709
aI13393180
aI13491487
aI13360421
aI13524274
aI13524279
aI13537162
aI13393221
aI13524297
aI13458772
aI13360476
aI13491551
aI13524324
aI13426026
aI13491573
aI13458806
aI13393272
aI13360505
aI13426050
aI13393289
aI13393293
aI13524375
aI13360542
aI13400645
aI13389725
aI13449800
aI13360563
aI13524411
aI13491649
aI13393348
aI13458886
aI13393366
aI13524444
aI13491683
aI13426148
aI13491693
aI13524472
aI13491713
aI13491723
aI13524494
aI13466201
aI13430431
aI13458973
aI13360673
aI13426213
aI13520817
aI13524523
aI13426223
aI13426229
aI13524534
aI13360701
aI13524551
aI13459017
aI13491792
aI13491800
aI13493519
aI13384297
aI13524605
aI13360766
aI13524609
aI13491849
aI13491851
aI13360786
aI13426326
aI13524632
aI13524637
aI13524639
aI13459106
aI13426339
aI13360805
aI13395228
aI13524655
aI13459128
aI13426367
aI13491905
aI13360834
aI13360839
aI13426377
aI13459150
aI13524690
aI13360864
aI13531771
aI13491940
aI13491950
aI13459187
aI13459193
aI13426443
aI13446806
aI13491984
aI13417091
aI13491989
aI13393708
aI13400712
aI13346099
aI13492027
aI13393733
aI13360967
aI13426510
aI13524819
aI13393751
aI13459292
aI13360994
aI13426531
aI13361019
aI13524860
aI13459327
aI13492096
aI13426563
aI13426572
aI13393808
aI13524885
aI13361046
aI13459352
aI13393819
aI13348609
aI13361056
aI13455347
aI13492152
aI13459385
aI13459390
aI13459414
aI13492183
aI13444431
aI13459424
aI13361130
aI13361134
aI13492210
aI13426675
aI13459445
aI13524998
aI13361167
aI13361171
aI13426723
aI13393958
aI13459497
aI13394008
aI13459546
aI13394011
aI13492320
aI13525092
aI13426790
aI13459560
aI13525098
aI13459579
aI13361276
aI13459594
aI13361293
aI13459606
aI13492376
aI13428079
aI13525151
aI13459625
aI13426867
aI13394102
aI13459639
aI13492409
aI13525181
aI13459649
aI13426895
aI13492439
aI13394150
aI13426919
aI13394154
aI13459706
aI13361406
aI13426943
aI13340983
aI13525255
aI13492491
aI13525263
aI13459741
aI13426976
aI13525281
aI13459752
aI13361459
aI13361474
aI13427011
aI13492556
aI13427032
aI13541754
aI13361503
aI13394273
aI13492579
aI13459821
aI13459827
aI13394298
aI13361546
aI13394315
aI13427084
aI13459853
aI13361555
aI13361559
aI13525401
aI13361566
aI13525417
aI13394348
aI13351666
aI13427123
aI13459897
aI13459908
aI13344263
aI13525449
aI13361616
aI13394387
aI13459929
aI13492698
aI13427171
aI13459940
aI13477286
aI13492719
aI13427187
aI13459960
aI13361666
aI13525508
aI13492742
aI13394441
aI13525516
aI13525530
aI13361691
aI13492765
aI13361697
aI13427237
aI13361706
aI13460016
aI13394485
aI13525563
aI13427261
aI13525576
aI13492817
aI13525589
aI13427289
aI13427293
aI13394528
aI13460070
aI13492844
aI13510077
aI13460089
aI13460103
aI13394569
aI13492874
aI13427340
aI13492898
aI13427363
aI13525668
aI13455473
aI13492914
aI13362633
aI13525689
aI13525701
aI13394640
aI13361877
aI13525719
aI13427420
aI13361898
aI13492989
aI13361918
aI13471874
aI13525794
aI13460263
aI13394733
aI13460270
aI13526494
aI13460278
aI13361983
aI13394760
aI13493065
aI13493069
aI13394767
aI13394771
aI13493081
aI13427549
aI13362014
aI13460323
aI13394791
aI13525864
aI13427566
aI13460336
aI13460341
aI13362046
aI13493123
aI13394823
aI13493131
aI13427597
aI13394841
aI13394851
aI13525931
aI13460396
aI13460401
aI13394867
aI13493188
aI13460425
aI13460431
aI13427672
aI13362139
aI13460454
aI13394929
aI13362164
aI13394935
aI13460474
aI13362173
aI13427710
aI13368287
aI13394973
aI13427753
aI13493307
aI13493321
aI13493331
aI13493340
aI13340858
aI13460579
aI13526116
aI13395057
aI13493366
aI13526144
aI13362308
aI13395078
aI13493386
aI13460624
aI13493399
aI13526172
aI13460646
aI13526189
aI13460658
aI13362718
aI13493432
aI13427905
aI13411874
aI13493454
aI13362385
aI13395157
aI13395165
aI13460707
aI13526244
aI13362407
aI13460712
aI13526262
aI13493500
aI13362434
aI13428267
aI13427982
aI13460751
aI13526291
aI13460757
aI13460763
aI13362460
aI13493533
aI13395240
aI13357277
aI13460785
aI13395252
aI13362485
aI13493558
aI13460793
aI13526330
aI13428034
aI13526339
aI13493575
aI13362508
aI13493581
aI13428060
aI13428071
aI13395310
aI13460847
aI13526391
aI13493627
aI13351830
aI13526415
aI13428112
aI13428124
aI13395357
aI13362593
aI13444678
aI13395367
aI13493687
aI13460932
aI13526471
aI13428169
aI13526479
aI13428176
aI13395409
aI13362645
aI13526486
aI13493725
aI13428190
aI13362663
aI13460972
aI13335465
aI13395450
aI13526529
aI13362693
aI13461004
aI13493783
aI13362715
aI13395484
aI13526558
aI13493792
aI13351856
aI13461028
aI13373702
aI13395499
aI13526575
aI13428272
aI13395513
aI13428284
aI13428296
aI13357325
aI13461083
aI13428322
aI13526627
aI13493864
aI13362796
aI13461111
aI13526652
aI13493887
aI13461124
aI13461132
aI13362830
aI13362833
aI13526682
aI13493916
aI13461155
aI13526694
aI13362862
aI13428400
aI13395644
aI13461181
aI13362880
aI13428423
aI13493961
aI13428343
aI13362897
aI13493976
aI13395680
aI13493992
aI13461226
aI13499346
aI13526766
aI13362927
aI13395700
aI13461246
aI13494017
aI13395717
aI13362955
aI13461265
aI13395730
aI13428503
aI13461276
aI13395749
aI13526843
aI13395774
aI13395778
aI13428555
aI13363024
aI13526865
aI13461338
aI13526876
aI13363046
aI13363048
aI13494129
aI13461367
aI13395832
aI13428618
aI13461390
aI13526929
aI13395859
aI13494167
aI13494174
aI13526944
aI13524864
aI13461419
aI13494188
aI13363125
aI13363131
aI13363150
aI13461464
aI13395929
aI13494238
aI13395940
aI13363187
aI13395956
aI13494261
aI13527041
aI13527049
aI13527056
aI13395986
aI13395991
aI13527073
aI13396003
aI13527090
aI13428792
aI13494331
aI13351947
aI13428804
aI13494346
aI13428820
aI13363299
aI13363323
aI13428867
aI13494404
aI13406572
aI13461644
aI13527183
aI13461657
aI13428893
aI13363363
aI13527204
aI13494438
aI13494442
aI13428908
aI13363390
aI13363393
aI13461716
aI13494498
aI13461201
aI13461743
aI13527280
aI13472127
aI13428993
aI13396233
aI13494559
aI13464350
aI13461795
aI13527340
aI13396269
aI13429038
aI13396276
aI13494581
aI13527351
aI13429050
aI13477599
aI13406602
aI13527360
aI13429071
aI13461853
aI13396318
aI13494632
aI13396330
aI13527409
aI13396338
aI13527414
aI13363586
aI13510380
aI13494667
aI13429137
aI13494674
aI13494677
aI13461231
aI13461917
aI13527458
aI13429169
aI13396413
aI13527486
aI13429196
aI13429200
aI13494746
aI13499471
aI13494765
aI13429256
aI13494797
aI13494820
aI13429290
aI13527596
aI13396529
aI13423027
aI13429300
aI13396534
aI13477641
aI13494840
aI13363772
aI13396544
aI13527617
aI13527627
aI13363789
aI13527634
aI13494869
aI13396588
aI13429357
aI13527668
aI13462134
aI13396601
aI13527674
aI13527682
aI13412118
aI13462153
aI13396619
aI13527695
aI13429406
aI13390277
aI13494944
aI13462179
aI13429413
aI13527722
aI13494962
aI13494967
aI13527741
aI13429440
aI13396678
aI13429450
aI13363927
aI13461285
aI13396708
aI13495024
aI13396722
aI13429492
aI13363958
aI13495032
aI13429498
aI13396759
aI13527835
aI13462306
aI13396774
aI13364017
aI13396796
aI13417610
aI13364030
aI13462353
aI13364054
aI13462375
aI13364075
aI13527916
aI13396861
aI13429633
aI13527938
aI13462406
aI13364105
aI13527946
aI13364121
aI13462427
aI13527968
aI13527972
aI13364135
aI13396906
aI13495214
aI13462447
aI13396921
aI13462458
aI13429698
aI13528003
aI13462470
aI13495239
aI13396938
aI13495244
aI13528015
aI13462481
aI13528026
aI13528028
aI13462505
aI13429743
aI13495281
aI13462526
aI13429761
aI13495300
aI13364238
aI13528079
aI13397014
aI13429792
aI13528097
aI13397030
aI13528109
aI13462576
aI13429814
aI13397050
aI13462594
aI13429827
aI13429834
aI13528140
aI13495374
aI13532344
aI13397081
aI13429856
aI13364324
aI13429872
aI13429874
aI13528185
aI13528190
aI13429928
aI13462698
aI13397172
aI13462713
aI13495484
aI13364413
aI13429956
aI13495497
aI13495507
aI13495514
aI13495516
aI13429984
aI13397221
aI13364455
aI13346684
aI13364473
aI13462784
aI13357611
aI13528330
aI13430027
aI13430044
aI13462820
aI13364517
aI13495601
aI13528386
aI13364551
aI13495625
aI13528396
aI13397326
aI13397328
aI13462865
aI13461393
aI13430121
aI13397354
aI13528428
aI13430130
aI13428631
aI13495694
aI13397399
aI13528472
aI13397409
aI13397418
aI13374023
aI13462966
aI13397436
aI13364669
aI13462988
aI13528530
aI13462999
aI13364699
aI13430236
aI13397470
aI13521489
aI13516029
aI13528562
aI13430263
aI13495802
aI13463041
aI13397508
aI13495825
aI13463059
aI13430293
aI13528598
aI13364759
aI13528621
aI13463086
aI13528629
aI13384970
aI13463102
aI13430341
aI13430347
aI13430352
aI13463128
aI13397598
aI13495904
aI13463143
aI13397614
aI13430392
aI13434133
aI13463169
aI13397638
aI13397642
aI13495949
aI13528720
aI13495958
aI13397663
aI13414205
aI13495983
aI13364916
aI13430457
aI13364922
aI13530957
aI13430474
aI13463244
aI13496015
aI13430480
aI13397716
aI13397722
aI13463261
aI13528805
aI13430508
aI13528820
aI13364986
aI13528828
aI13430527
aI13528833
aI13463303
aI13434156
aI13397776
aI13528865
aI13496107
aI13477853
aI13496114
aI13363166
aI13365048
aI13431668
aI13397827
aI13463369
aI13496143
aI13397845
aI13528934
aI13496169
aI13488786
aI13463414
aI13430656
aI13496200
aI13463437
aI13365140
aI13496213
aI13463447
aI13463455
aI13496224
aI13397923
aI13430692
aI13463462
aI13532487
aI13430702
aI13529007
aI13397936
aI13463479
aI13430712
aI13428724
aI13496253
aI13397950
aI13430728
aI13365199
aI13430736
aI13496280
aI13496282
aI13463520
aI13397987
aI13463528
aI13379580
aI13466962
aI13430768
aI13463537
aI13365244
aI13365255
aI13529097
aI13463563
aI13463567
aI13505199
aI13529121
aI13456049
aI13496360
aI13430831
aI13529152
aI13365323
aI13529183
aI13398112
aI13496423
aI13398121
aI13496433
aI13430899
aI13529209
aI13398152
aI13365385
aI13529238
aI13365422
aI13496495
aI13496513
aI13537995
aI13463752
aI13496524
aI13529293
aI13430991
aI13529298
aI13431000
aI13529307
aI13368698
aI13496543
aI13431011
aI13529320
aI13496558
aI13398257
aI13398266
aI13463812
aI13496588
aI13529362
aI13398300
aI13496607
aI13496618
aI13365554
aI13529395
aI13398337
aI13529414
aI13398347
aI13398361
aI13431130
aI13529444
aI13398374
aI13365616
aI13529473
aI13496715
aI13496733
aI13463976
aI13496750
aI13496754
aI13529531
aI13398460
aI13365703
aI13431240
aI13374199
aI13496789
aI13365718
aI13496793
aI13431272
aI13398511
aI13464049
aI13496818
aI13496822
aI13521663
aI13365756
aI13496829
aI13496837
aI13398553
aI13365786
aI13529630
aI13431329
aI13496867
aI13529640
aI13464115
aI13496885
aI13464121
aI13341450
aI13464129
aI13496908
aI13398622
aI13464159
aI13431392
aI13529701
aI13496939
aI13431404
aI13464174
aI13431408
aI13464196
aI13496970
aI13417922
aI13529743
aI13464208
aI13365906
aI13496983
aI13529754
aI13496995
aI13497000
aI13431473
aI13365944
aI13398720
aI13365953
aI13434315
aI13497029
aI13365969
aI13431508
aI13365977
aI13464301
aI13398773
aI13431550
aI13464321
aI13497097
aI13431565
aI13398801
aI13366043
aI13366046
aI13497120
aI13529900
aI13497133
aI13464368
aI13497140
aI13366072
aI13464377
aI13368800
aI13398858
aI13529946
aI13464412
aI13366114
aI13497188
aI13366119
aI13366129
aI13497204
aI13464450
aI13497222
aI13431687
aI13530005
aI13464471
aI13431707
aI13398940
aI13464488
aI13366187
aI13497264
aI13464498
aI13366195
aI13431736
aI13497279
aI13366223
aI13530064
aI13530071
aI13497308
aI13431776
aI13497330
aI13431803
aI13431814
aI13431829
aI13366300
aI13399074
aI13497380
aI13399081
aI13399087
aI13366330
aI13530175
aI13464641
aI13530185
aI13417998
aI13530199
aI13431908
aI13366375
aI13464689
aI13464709
aI13431946
aI13366417
aI13366423
aI13464733
aI13431971
aI13497514
aI13464748
aI13431986
aI13431988
aI13368864
aI13497539
aI13521782
aI13432009
aI13432020
aI13464791
aI13432048
aI13366517
aI13497590
aI13363412
aI13399296
aI13497603
aI13497605
aI13399303
aI13432079
aI13530385
aI13497621
aI13464862
aI13432101
aI13464872
aI13464884
aI13432123
aI13530437
aI13464905
aI13412580
aI13530459
aI13349435
aI13399411
aI13366650
aI13464958
aI13432191
aI13464962
aI13497737
aI13464970
aI13530518
aI13530521
aI13399451
aI13399468
aI13497777
aI13399474
aI13366707
aI13366720
aI13432258
aI13465037
aI13399502
aI13399505
aI13366741
aI13465051
aI13379835
aI13465062
aI13432295
aI13399535
aI13530613
aI13432310
aI13366790
aI13432332
aI13497869
aI13399566
aI13412611
aI13366812
aI13505456
aI13465125
aI13530667
aI13399596
aI13366832
aI13432382
aI13505461
aI13465157
aI13439927
aI13530706
aI13399635
aI13432406
aI13465176
aI13366873
aI13465181
aI13530730
aI13497963
aI13399663
aI13379859
aI13366901
aI13530747
aI13465214
aI13532114
aI13432457
aI13334158
aI13366928
aI13530775
aI13399706
aI13498023
aI13432493
aI13334213
aI13530825
aI13498062
aI13334223
aI13465302
aI13366999
aI13334238
aI13334244
aI13432566
aI13498107
aI13367037
aI13334281
aI13498129
aI13432598
aI13530903
aI13498138
aI13465372
aI13498148
aI13498150
aI13334311
aI13432619
aI13498158
aI13334319
aI13367090
aI13498173
aI13432653
aI13432658
aI13367123
aI13399897
aI13465437
aI13399907
aI13498221
aI13367153
aI13399927
aI13367164
aI13465479
aI13367186
aI13399969
aI13334437
aI13465517
aI13432756
aI13334459
aI13399999
aI13498306
aI13531075
aI13465544
aI13367246
aI13465558
aI13531096
aI13465561
aI13334495
aI13498350
aI13400048
aI13334518
aI13400058
aI13367299
aI13465606
aI13334537
aI13432844
aI13367315
aI13334552
aI13531166
aI13498399
aI13465636
aI13432870
aI13400103
aI13400119
aI13531193
aI13531200
aI13367367
aI13531236
aI13465702
aI13432942
aI13400176
aI13465719
aI13432956
aI13367421
aI13432973
aI13367440
aI13498516
aI13400221
aI13465762
aI13367460
aI13465767
aI13367467
aI13400248
aI13400253
aI13433024
aI13498568
aI13531337
aI13400268
aI13465810
aI13400285
aI13433059
aI13334767
aI13465848
aI13433084
aI13456427
aI13400329
aI13465872
aI13400339
aI13465878
aI13433116
aI13400351
aI13400353
aI13498666
aI13465899
aI13334833
aI13363593
aI13400377
aI13367610
aI13440054
aI13400390
aI13334860
aI13367633
aI13465945
aI13334877
aI13400417
aI13433194
aI13367664
aI13498738
aI13478291
aI13531509
aI13498742
aI13531517
aI13465988
aI13367689
aI13531532
aI13400468
aI13400476
aI13433248
aI13466021
aI13531564
aI13483763
aI13466049
aI13334981
aI13531595
aI13335005
aI13522001
aI13335022
aI13498872
aI13367809
aI13466117
aI13466119
aI13367822
aI13433363
aI13466134
aI13433370
aI13400605
aI13367847
aI13367853
aI13367860
aI13335109
aI13433419
aI13367895
aI13335128
aI13531737
aI13400668
aI13400683
aI13531759
aI13400688
aI13531764
aI13367931
aI13400703
aI13531776
aI13499011
aI13499016
aI13433488
aI13335185
aI13499029
aI13400731
aI13400735
aI13466273
aI13499042
aI13531820
aI13367993
aI13400767
aI13489326
aI13499078
aI13466312
aI13368009
aI13335243
aI13368053
aI13335286
aI13368067
aI13335301
aI13400845
aI13335311
aI13335316
aI13368090
aI13499165
aI13400865
aI13433634
aI13335339
aI13368108
aI13368123
aI13400894
aI13335360
aI13499201
aI13335362
aI13335370
aI13466445
aI13433683
aI13499220
aI13335382
aI13368152
aI13335390
aI13433702
aI13516606
aI13335414
aI13466492
aI13335425
aI13499273
aI13466506
aI13456536
aI13489308
aI13335480
aI13499323
aI13368265
aI13499340
aI13532109
aI13433806
aI13433810
aI13532125
aI13433823
aI13433827
aI13368298
aI13466603
aI13499373
aI13499385
aI13532154
aI13335550
aI13466629
aI13335573
aI13401115
aI13368348
aI13483866
aI13433898
aI13335597
aI13409956
aI13335615
aI13368386
aI13368393
aI13532237
aI13429261
aI13532242
aI13335639
aI13466720
aI13368428
aI13532271
aI13335674
aI13466748
aI13433987
aI13401220
aI13499525
aI13433994
aI13499549
aI13335711
aI13466784
aI13434022
aI13401259
aI13532335
aI13368498
aI13466808
aI13368506
aI13401284
aI13368518
aI13434059
aI13467512
aI13434068
aI13532382
aI13368558
aI13335797
aI13499642
aI13434108
aI13335808
aI13466885
aI13532428
aI13401365
aI13456601
aI13434151
aI13401387
aI13335852
aI13335856
aI13466930
aI13466936
aI13434183
aI13499720
aI13532493
aI13434192
aI13368658
aI13532501
aI13466967
aI13434201
aI13368669
aI13368673
aI13499749
aI13434220
aI13499760
aI13335925
aI13467002
aI13499785
aI13368725
aI13434283
aI13467054
aI13532592
aI13401525
aI13532598
aI13467064
aI13532604
aI13385632
aI13401542
aI13336008
aI13336011
aI13499857
aI13401562
aI13532640
aI13336046
aI13451176
aI13401602
aI13511254
aI13368858
aI13434400
aI13336097
aI13401643
aI13434419
aI13499959
aI13499961
aI13434432
aI13532739
aI13401669
aI13467206
aI13336138
aI13336150
aI13401693
aI13368940
aI13532781
aI13368950
aI13532794
aI13500031
aI13401734
aI13336211
aI13368981
aI13434531
aI13545277
aI13401786
aI13336254
aI13500099
aI13369033
aI13500106
aI13336275
aI13401813
aI13434583
aI13467354
aI13369052
aI13532897
aI13467366
aI13369074
aI13434615
aI13532923
aI13369084
aI13500157
aI13467396
aI13500166
aI13467403
aI13467419
aI13532959
aI13467427
aI13336361
aI13401902
aI13434680
aI13369149
aI13369162
aI13401933
aI13401940
aI13500248
aI13336414
aI13533025
aI13369194
aI13533044
aI13500280
aI13434746
aI13401992
aI13336462
aI13434773
aI13434775
aI13369240
aI13336476
aI13369255
aI13500329
aI13533098
aI13407560
aI13402041
aI13369280
aI13500355
aI13467597
aI13467601
aI13396643
aI13500373
aI13336534
aI13500382
aI13500398
aI13369336
aI13533178
atp2
Rp3
.