c__builtin__
set
p0
((lp1
I13418497
aI13484034
aI13533188
aI13524998
aI13533191
aI13540012
aI13443085
aI13361167
aI13361171
aI13484053
aI13369366
aI13370713
aI13346431
aI13352988
aI13352991
aI13500450
aI13393958
aI13480388
aI13402159
aI13475890
aI13541434
aI13467002
aI13336641
aI13402184
aI13451338
aI13413047
aI13344846
aI13500495
aI13475923
aI13451350
aI13453091
aI13385818
aI13377627
aI13434973
aI13346149
aI13492320
aI13508711
aI13525098
aI13516915
aI13336694
aI13459579
aI13344895
aI13369473
aI13484162
aI13377669
aI13418630
aI13467786
aI13410452
aI13459606
aI13410458
aI13525151
aI13451424
aI13471771
aI13344936
aI13533359
aI13476016
aI13476018
aI13426867
aI13369524
aI13394102
aI13459639
aI13492409
aI13525181
aI13516991
aI13385921
aI13418692
aI13484230
aI13451465
aI13418699
aI13426895
aI13418708
aI13361367
aI13431000
aI13533405
aI13407268
aI13451488
aI13385956
aI13525030
aI13426919
aI13369576
aI13508841
aI13484272
aI13402356
aI13377781
aI13507722
aI13459497
aI13459706
aI13541627
aI13476093
aI13340983
aI13353220
aI13410565
aI13485441
aI13469191
aI13500681
aI13508874
aI13492491
aI13525263
aI13435152
aI13541649
aI13476116
aI13459741
aI13410597
aI13377832
aI13533482
aI13402411
aI13361459
aI13353275
aI13467967
aI13459777
aI13439691
aI13500741
aI13410632
aI13353297
aI13450766
aI13451603
aI13345111
aI13541721
aI13354383
aI13443420
aI13361503
aI13505936
aI13492579
aI13508964
aI13336933
aI13410663
aI13484393
aI13353323
aI13369708
aI13459821
aI13459827
aI13377914
aI13500795
aI13353342
aI13435263
aI13530518
aI13394315
aI13427084
aI13451661
aI13515023
aI13386129
aI13418900
aI13443477
aI13500823
aI13353370
aI13435292
aI13336991
aI13541792
aI13435298
aI13353381
aI13418920
aI13525417
aI13443500
aI13369774
aI13452701
aI13427123
aI13517236
aI13459897
aI13517246
aI13468095
aI13459908
aI13484487
aI13527799
aI13353420
aI13410765
aI13435344
aI13517265
aI13388537
aI13459929
aI13386202
aI13443548
aI13402594
aI13459940
aI13398097
aI13451752
aI13517290
aI13395367
aI13541870
aI13492719
aI13410802
aI13459960
aI13402619
aI13369855
aI13361666
aI13525508
aI13451782
aI13541895
aI13394441
aI13525516
aI13419021
aI13386255
aI13451798
aI13410842
aI13361691
aI13410848
aI13361697
aI13476387
aI13427237
aI13361706
aI13345329
aI13402679
aI13369913
aI13541948
aI13427261
aI13501878
aI13443654
aI13484617
aI13402701
aI13525589
aI13476438
aI13484631
aI13402715
aI13427293
aI13394528
aI13369953
aI13460070
aI13476455
aI13386346
aI13492844
aI13509230
aI13353583
aI13476467
aI13460089
aI13435518
aI13542019
aI13460103
aI13345418
aI13427340
aI13370001
aI13345426
aI13386389
aI13517464
aI13533850
aI13348089
aI13451932
aI13353633
aI13492898
aI13542051
aI13525668
aI13518278
aI13476531
aI13542068
aI13509301
aI13394615
aI13419192
aI13525689
aI13435579
aI13533884
aI13443773
aI13535219
aI13402817
aI13525701
aI13544225
aI13468361
aI13425288
aI13488247
aI13514189
aI13337298
aI13361877
aI13402841
aI13526929
aI13435611
aI13427420
aI13378269
aI13476577
aI13361898
aI13443824
aI13402865
aI13359276
aI13460216
aI13337337
aI13402876
aI13478698
aI13361918
aI13509375
aI13370118
aI13378311
aI13345548
aI13340802
aI13386511
aI13419281
aI13476627
aI13509400
aI13486394
aI13435677
aI13501215
aI13484835
aI13468455
aI13402923
aI13394733
aI13342173
aI13345584
aI13435698
aI13534004
aI13370169
aI13509435
aI13419325
aI13361983
aI13402948
aI13509448
aI13493065
aI13509451
aI13493069
aI13534030
aI13394767
aI13370193
aI13394771
aI13501272
aI13493081
aI13337442
aI13460323
aI13394791
aI13437567
aI13383143
aI13452140
aI13517677
aI13468531
aI13460341
aI13517686
aI13468536
aI13419385
aI13484924
aI13335360
aI13542275
aI13337478
aI13394823
aI13353864
aI13435785
aI13493131
aI13427597
aI13353871
aI13452179
aI13484948
aI13468565
aI13406361
aI13468571
aI13362083
aI13435814
aI13517741
aI13435823
aI13460401
aI13534131
aI13337524
aI13501367
aI13465077
aI13493188
aI13350554
aI13394887
aI13353929
aI13452236
aI13460431
aI13447665
aI13378519
aI13427672
aI13362139
aI13468636
aI13386720
aI13419492
aI13460454
aI13370343
aI13501417
aI13542378
aI13435887
aI13422760
aI13542387
aI13362164
aI13460474
aI13468669
aI13476865
aI13444098
aI13439147
aI13435910
aI13526529
aI13452296
aI13542412
aI13362189
aI13337629
aI13424133
aI13435056
aI13488585
aI13509669
aI13411366
aI13427753
aI13542443
aI13344946
aI13501487
aI13403187
aI13476020
aI13337662
aI13349467
aI13380837
aI13485126
aI13370441
aI13411403
aI13386828
aI13476949
aI13444183
aI13501533
aI13337695
aI13378657
aI13419619
aI13526116
aI13403237
aI13386857
aI13542506
aI13395057
aI13455581
aI13456915
aI13436020
aI13403259
aI13419646
aI13345921
aI13362308
aI13493399
aI13452441
aI13526172
aI13468834
aI13443853
aI13351793
aI13477032
aI13526189
aI13455583
aI13395122
aI13468854
aI13493432
aI13485247
aI13444288
aI13427905
aI13485255
aI13493454
aI13534419
aI13395157
aI13509847
aI13370916
aI13403356
aI13452515
aI13362407
aI13411560
aI13386988
aI13528418
aI13509874
aI13346038
aI13383209
aI13337852
aI13534464
aI13373751
aI13428267
aI13492439
aI13378829
aI13427982
aI13460751
aI13452560
aI13378833
aI13337883
aI13362460
aI13378847
aI13468965
aI13419822
aI13373661
aI13460785
aI13518130
aI13485619
aI13395252
aI13403445
aI13460793
aI13419834
aI13509947
aI13527946
aI13485377
aI13428034
aI13526339
aI13411653
aI13493575
aI13454220
aI13534538
aI13501771
aI13493581
aI13419854
aI13452624
aI13403475
aI13443626
aI13508836
aI13354332
aI13509327
aI13428064
aI13403490
aI13387109
aI13428071
aI13428079
aI13354356
aI13358654
aI13362553
aI13444474
aI13493627
aI13392850
aI13378945
aI13337987
aI13387140
aI13452680
aI13493642
aI13477259
aI13370766
aI13526415
aI13428112
aI13346193
aI13444498
aI13378972
aI13444509
aI13387167
aI13346208
aI13362593
aI13411910
aI13378982
aI13403559
aI13460909
aI13485486
aI13403570
aI13519150
aI13478814
aI13469110
aI13379001
aI13510077
aI13460932
aI13477317
aI13436358
aI13411784
aI13387209
aI13338059
aI13542863
aI13395409
aI13469139
aI13362645
aI13526486
aI13452760
aI13501913
aI13452763
aI13428190
aI13419999
aI13394298
aI13362663
aI13510120
aI13354475
aI13338194
aI13362671
aI13501936
aI13469169
aI13444594
aI13403635
aI13387254
aI13485559
aI13395450
aI13338108
aI13420033
aI13534723
aI13452804
aI13477383
aI13510152
aI13379087
aI13485584
aI13501970
aI13436441
aI13362715
aI13395484
aI13493792
aI13510178
aI13420123
aI13461028
aI13480198
aI13477414
aI13395499
aI13387308
aI13526575
aI13428272
aI13452851
aI13444660
aI13469237
aI13477433
aI13428284
aI13338174
aI13518432
aI13346370
aI13541643
aI13444678
aI13428296
aI13469258
aI13502028
aI13436498
aI13518337
aI13413305
aI13461083
aI13387357
aI13493854
aI13420128
aI13526627
aI13424262
aI13493864
aI13392585
aI13346413
aI13370991
aI13461111
aI13437887
aI13526652
aI13362794
aI13493887
aI13395584
aI13485700
aI13485704
aI13411980
aI13413314
aI13362830
aI13346447
aI13485712
aI13362833
aI13534866
aI13411987
aI13444756
aI13518488
aI13420143
aI13387421
aI13452961
aI13461155
aI13403813
aI13510316
aI13403821
aI13533469
aI13428400
aI13534897
aI13477556
aI13538799
aI13379259
aI13395644
aI13461181
aI13362880
aI13485761
aI13428423
aI13499340
aI13453004
aI13502160
aI13362897
aI13387476
aI13412055
aI13338328
aI13444826
aI13371100
aI13543135
aI13395680
aI13530747
aI13493992
aI13461226
aI13510380
aI13532114
aI13526766
aI13362927
aI13453044
aI13383294
aI13502199
aI13412088
aI13485817
aI13350527
aI13379325
aI13444862
aI13412102
aI13477641
aI13362955
aI13346576
aI13461265
aI13395730
aI13371158
aI13428503
aI13461276
aI13387549
aI13485859
aI13395749
aI13354794
aI13403950
aI13543219
aI13436724
aI13469498
aI13526843
aI13444925
aI13395774
aI13346623
aI13502272
aI13354817
aI13403788
aI13428555
aI13387596
aI13453135
aI13335434
aI13387604
aI13477724
aI13477728
aI13444965
aI13453160
aI13346665
aI13487079
aI13543280
aI13494129
aI13375123
aI13395832
aI13396413
aI13346684
aI13516983
aI13338495
aI13502336
aI13469570
aI13431105
aI13387656
aI13420425
aI13428618
aI13461390
aI13518737
aI13395859
aI13494167
aI13453208
aI13412249
aI13535132
aI13404061
aI13494174
aI13354918
aI13485992
aI13461419
aI13420460
aI13510574
aI13518770
aI13502387
aI13363125
aI13518776
aI13363131
aI13469628
aI13412289
aI13379523
aI13510598
aI13518794
aI13371343
aI13502418
aI13499385
aI13453276
aI13518813
aI13363166
aI13486048
aI13502434
aI13346794
aI13486435
aI13535213
aI13354990
aI13476615
aI13502451
aI13395956
aI13494261
aI13501984
aI13506218
aI13527041
aI13469698
aI13338627
aI13445125
aI13535238
aI13543434
aI13453324
aI13453326
aI13527056
aI13379601
aI13395986
aI13395991
aI13420570
aI13346844
aI13527073
aI13453346
aI13355044
aI13346856
aI13377727
aI13371436
aI13387824
aI13527090
aI13428792
aI13494331
aI13412413
aI13469760
aI13346881
aI13535298
aI13494346
aI13486157
aI13387855
aI13346896
aI13510737
aI13445203
aI13428820
aI13421582
aI13338716
aI13445214
aI13543521
aI13363299
aI13404262
aI13346920
aI13485756
aI13502573
aI13338735
aI13437040
aI13502577
aI13412471
aI13355128
aI13535353
aI13363323
aI13445245
aI13486206
aI13453440
aI13494404
aI13535367
aI13404296
aI13355148
aI13387919
aI13469840
aI13535379
aI13518997
aI13502618
aI13510813
aI13455728
aI13437091
aI13453478
aI13379751
aI13368348
aI13494442
aI13371563
aI13486252
aI13404335
aI13437108
aI13510345
aI13412540
aI13363390
aI13379775
aI13371584
aI13363393
aI13347013
aI13346508
aI13420748
aI13363412
aI13427066
aI13338847
aI13535456
aI13494498
aI13476219
aI13453540
aI13478117
aI13519078
aI13461201
aI13527280
aI13510901
aI13510903
aI13510907
aI13534454
aI13379843
aI13543684
aI13519110
aI13478151
aI13396233
aI13371658
aI13535499
aI13469964
aI13493976
aI13379859
aI13338902
aI13388055
aI13535524
aI13412645
aI13478185
aI13379886
aI13338930
aI13519923
aI13396276
aI13494581
aI13429050
aI13535548
aI13445437
aI13527360
aI13355329
aI13502786
aI13429071
aI13444984
aI13486418
aI13470041
aI13461853
aI13478971
aI13494632
aI13396330
aI13519213
aI13379952
aI13527409
aI13396338
aI13543795
aI13502841
aI13535612
aI13379968
aI13470082
aI13437316
aI13339015
aI13379308
aI13347210
aI13404555
aI13388172
aI13445520
aI13429137
aI13356099
aI13461908
aI13535644
aI13371805
aI13404575
aI13355436
aI13453741
aI13429169
aI13412790
aI13470135
aI13420985
aI13388219
aI13384778
aI13437382
aI13388232
aI13519305
aI13453771
aI13511116
aI13410722
aI13481541
aI13470162
aI13535702
aI13527512
aI13494746
aI13519324
aI13404639
aI13543908
aI13339109
aI13461285
aI13486571
aI13372429
aI13494765
aI13354749
aI13535731
aI13461246
aI13423017
aI13473359
aI13502973
aI13449900
aI13429256
aI13494797
aI13511188
aI13377966
aI13511193
aI13380129
aI13349790
aI13511208
aI13388329
aI13412907
aI13527596
aI13388333
aI13360156
aI13343837
aI13519408
aI13396529
aI13396534
aI13502217
aI13494840
aI13470268
aI13508823
aI13511232
aI13470816
aI13426443
aI13527627
aI13339213
aI13535826
aI13404755
aI13494869
aI13478486
aI13535834
aI13412955
aI13485840
aI13388386
aI13339238
aI13511274
aI13396588
aI13533375
aI13404782
aI13339247
aI13511282
aI13377982
aI13462134
aI13355640
aI13380220
aI13544063
aI13445766
aI13380231
aI13462153
aI13396619
aI13339276
aI13453977
aI13421211
aI13503132
aI13465181
aI13390277
aI13494944
aI13462179
aI13429413
aI13503145
aI13527722
aI13447623
aI13421228
aI13347501
aI13494967
aI13347513
aI13445820
aI13527741
aI13470404
aI13519557
aI13429450
aI13388494
aI13339347
aI13503193
aI13454043
aI13518629
aI13361616
aI13509073
aI13372145
aI13429492
aI13363958
aI13413111
aI13521364
aI13429498
aI13535999
aI13536006
aI13520001
aI13486867
aI13498158
aI13478680
aI13388570
aI13527835
aI13413149
aI13511455
aI13445921
aI13380388
aI13396774
aI13519658
aI13372203
aI13511468
aI13413165
aI13364017
aI13388600
aI13396796
aI13388605
aI13364030
aI13437763
aI13519689
aI13519693
aI13388625
aI13445970
aI13396819
aI13536087
aI13477690
aI13388638
aI13454176
aI13504998
aI13388653
aI13478769
aI13372274
aI13381444
aI13339513
aI13544314
aI13421436
aI13486973
aI13519743
aI13436736
aI13405062
aI13364105
aI13396874
aI13544332
aI13405069
aI13388686
aI13413266
aI13533678
aI13339543
aI13339546
aI13446043
aI13347742
aI13372319
aI13339556
aI13364135
aI13405097
aI13396906
aI13544364
aI13536173
aI13495214
aI13511600
aI13358920
aI13470649
aI13503423
aI13429698
aI13528003
aI13339589
aI13487046
aI13503436
aI13528015
aI13405137
aI13470674
aI13372374
aI13535055
aI13437916
aI13544413
aI13413344
aI13503463
aI13462505
aI13421551
aI13470709
aI13437942
aI13405175
aI13378047
aI13437950
aI13503490
aI13473622
aI13487113
aI13478923
aI13388813
aI13364238
aI13380623
aI13544464
aI13421587
aI13397014
aI13528097
aI13397030
aI13443591
aI13528109
aI13462576
aI13544627
aI13388852
aI13536312
aI13397050
aI13347899
aI13438013
aI13519939
aI13421636
aI13372485
aI13429834
aI13427213
aI13532344
aI13457251
aI13413461
aI13454428
aI13536349
aI13429856
aI13438050
aI13364324
aI13503589
aI13372518
aI13511783
aI13446253
aI13470830
aI13429874
aI13454457
aI13479034
aI13339771
aI13421692
aI13470847
aI13441465
aI13446276
aI13520008
aI13544588
aI13347981
aI13454478
aI13536399
aI13532356
aI13525530
aI13438110
aI13356199
aI13380787
aI13520054
aI13339835
aI13495484
aI13543488
aI13399927
aI13348044
aI13511886
aI13487311
aI13354872
aI13443619
aI13470932
aI13413589
aI13389017
aI13495514
aI13495516
aI13443621
aI13429984
aI13389027
aI13503716
aI13397221
aI13364455
aI13412220
aI13454572
aI13356270
aI13380848
aI13421812
aI13364473
aI13431473
aI13487357
aI13520085
aI13536518
aI13438216
aI13528330
aI13430027
aI13374638
aI13380881
aI13413656
aI13544736
aI13364517
aI13380828
aI13520171
aI13446447
aI13417998
aI13348150
aI13457290
aI13496885
aI13528386
aI13479235
aI13389129
aI13512014
aI13421906
aI13348179
aI13420430
aI13413721
aI13497120
aI13372770
aI13349435
aI13544806
aI13413735
aI13430121
aI13397354
aI13405548
aI13413742
aI13340017
aI13430130
aI13380988
aI13487485
aI13348222
aI13471106
aI13340042
aI13352274
aI13356429
aI13520275
aI13528472
aI13364633
aI13478300
aI13479324
aI13356445
aI13438366
aI13405600
aI13520293
aI13439559
aI13512110
aI13438387
aI13487547
aI13397436
aI13356477
aI13479362
aI13496908
aI13462988
aI13422030
aI13479377
aI13389270
aI13462999
aI13348312
aI13389276
aI13397470
aI13536738
aI13438435
aI13346726
aI13348327
aI13450493
aI13520369
aI13528562
aI13446645
aI13430263
aI13471224
aI13487609
aI13495802
aI13512187
aI13413887
aI13463041
aI13475073
aI13405706
aI13438477
aI13465517
aI13430293
aI13381143
aI13487642
aI13381150
aI13520418
aI13406811
aI13487653
aI13381168
aI13372977
aI13463093
aI13389370
aI13389066
aI13461393
aI13422145
aI13487683
aI13484641
aI13520458
aI13430347
aI13381199
aI13430352
aI13463128
aI13454940
aI13487709
aI13479518
aI13375419
aI13389412
aI13340261
aI13356649
aI13512299
aI13397614
aI13430392
aI13359039
aI13516053
aI13381248
aI13463169
aI13536900
aI13471365
aI13397638
aI13504690
aI13468268
aI13520522
aI13528720
aI13356690
aI13464174
aI13446806
aI13545114
aI13381276
aI13397663
aI13504162
aI13495983
aI13536945
aI13438648
aI13545145
aI13438650
aI13389500
aI13520575
aI13356320
aI13353679
aI13463244
aI13471438
aI13438674
aI13520596
aI13545177
aI13397722
aI13545179
aI13463261
aI13544741
aI13528805
aI13356775
aI13414127
aI13504240
aI13479672
aI13364986
aI13414140
aI13340414
aI13430527
aI13528833
aI13422339
aI13340420
aI13465558
aI13521537
aI13479689
aI13397772
aI13414157
aI13381392
aI13471507
aI13405973
aI13389593
aI13381404
aI13463327
aI13520672
aI13432295
aI13414181
aI13422378
aI13496107
aI13471532
aI13496114
aI13545269
aI13545273
aI13438778
aI13397827
aI13504324
aI13487941
aI13537096
aI13463369
aI13389642
aI13349517
aI13397845
aI13414235
aI13356893
aI13447013
aI13528934
aI13520744
aI13348715
aI13356913
aI13355018
aI13487987
aI13479796
aI13455224
aI13455227
aI13376841
aI13435541
aI13430656
aI13414273
aI13406082
aI13504391
aI13496200
aI13512588
aI13520194
aI13422479
aI13389713
aI13430674
aI13496213
aI13479834
aI13545372
aI13447834
aI13406111
aI13496224
aI13477499
aI13463462
aI13488039
aI13422504
aI13406123
aI13430702
aI13465848
aI13422513
aI13363187
aI13340598
aI13463479
aI13510644
aI13520826
aI13488068
aI13381586
aI13427363
aI13447125
aI13431946
aI13496280
aI13496282
aI13455325
aI13397987
aI13537253
aI13414374
aI13430764
aI13544786
aI13504496
aI13446483
aI13389812
aI13381624
aI13393237
aI13348865
aI13357060
aI13398023
aI13447178
aI13463563
aI13504525
aI13463567
aI13340690
aI13488147
aI13348886
aI13341359
aI13440371
aI13529121
aI13480625
aI13496360
aI13504557
aI13520947
aI13406260
aI13504572
aI13394851
aI13529152
aI13424039
aI13365323
aI13380962
aI13504590
aI13422673
aI13406291
aI13381724
aI13529183
aI13389924
aI13404178
aI13430899
aI13340788
aI13512821
aI13537399
aI13529209
aI13471866
aI13348988
aI13471874
aI13504643
aI13509313
aI13398152
aI13365385
aI13389964
aI13381775
aI13414546
aI13406915
aI13512853
aI13529238
aI13373592
aI13349017
aI13471900
aI13497029
aI13537440
aI13414565
aI13480102
aI13447335
aI13512872
aI13381803
aI13365420
aI13365422
aI13463727
aI13357234
aI13373619
aI13447349
aI13340854
aI13480120
aI13537466
aI13498399
aI13422786
aI13537995
aI13373638
aI13471947
aI13496524
aI13529293
aI13430991
aI13381845
aI13488344
aI13390041
aI13386447
aI13344122
aI13521118
aI13496543
aI13422816
aI13504737
aI13431011
aI13432870
aI13422824
aI13471979
aI13537516
aI13496558
aI13398257
aI13447412
aI13431029
aI13474237
aI13540735
aI13471997
aI13512961
aI13504774
aI13429774
aI13373714
aI13501145
aI13357339
aI13398300
aI13488413
aI13390112
aI13533916
aI13447466
aI13480238
aI13439280
aI13365554
aI13529395
aI13406517
aI13499785
aI13480251
aI13422910
aI13373761
aI13447496
aI13521232
aI13390161
aI13472086
aI13539385
aI13517067
aI13513049
aI13431130
aI13439324
aI13513055
aI13398374
aI13537648
aI13422962
aI13513075
aI13456783
aI13349237
aI13398391
aI13496699
aI13472127
aI13529473
aI13439362
aI13472138
aI13521306
aI13472159
aI13383750
aI13349286
aI13439399
aI13472169
aI13439402
aI13382061
aI13504946
aI13423027
aI13455798
aI13480375
aI13521336
aI13357502
aI13373892
aI13521349
aI13365703
aI13480393
aI13439444
aI13496789
aI13373910
aI13496793
aI13349342
aI13488614
aI13365743
aI13464049
aI13337342
aI13496822
aI13518932
aI13365756
aI13521406
aI13480447
aI13414913
aI13496837
aI13505031
aI13341196
aI13487067
aI13439506
aI13447702
aI13529630
aI13431329
aI13496867
aI13455910
aI13431336
aI13509383
aI13359133
aI13455917
aI13480494
aI13521461
aI13497097
aI13480507
aI13472522
aI13500435
aI13464129
aI13414978
aI13505091
aI13456790
aI13374023
aI13382220
aI13472335
aI13480529
aI13540158
aI13488727
aI13382415
aI13415005
aI13398622
aI13464159
aI13431392
aI13374050
aI13513317
aI13416152
aI13431404
aI13505134
aI13431408
aI13423217
aI13496618
aI13357697
aI13387778
aI13382284
aI13503938
aI13464208
aI13447825
aI13488786
aI13516227
aI13397326
aI13496983
aI13529754
aI13349533
aI13496995
aI13488804
aI13497000
aI13374121
aI13357743
aI13456049
aI13382325
aI13423288
aI13406602
aI13365953
aI13472450
aI13456067
aI13480645
aI13341382
aI13370380
aI13406923
aI13425209
aI13543544
aI13488852
aI13365977
aI13406946
aI13541358
aI13341419
aI13439726
aI13456113
aI13398773
aI13374199
aI13538042
aI13472507
aI13447932
aI13480703
aI13370155
aI13505286
aI13398828
aI13341450
aI13447948
aI13431565
aI13406991
aI13398801
aI13464350
aI13472544
aI13456162
aI13407011
aI13513508
aI13538087
aI13430236
aI13390636
aI13488943
aI13538100
aI13341493
aI13366072
aI13497140
aI13407045
aI13453452
aI13341516
aI13349718
aI13521751
aI13529946
aI13490319
aI13488990
aI13480799
aI13464418
aI13497188
aI13448047
aI13505392
aI13349747
aI13472628
aI13505400
aI13415290
aI13357950
aI13464450
aI13497222
aI13513607
aI13385197
aI13341584
aI13530005
aI13452100
aI13415322
aI13341596
aI13513630
aI13423520
aI13480865
aI13356529
aI13464488
aI13448105
aI13529362
aI13366187
aI13382573
aI13433994
aI13513650
aI13366195
aI13341621
aI13431736
aI13339506
aI13497279
aI13449376
aI13505475
aI13374404
aI13513672
aI13349836
aI13445619
aI13349840
aI13417976
aI13369240
aI13382614
aI13341660
aI13497330
aI13468499
aI13489811
aI13462260
aI13419919
aI13349879
aI13489150
aI13518412
aI13367467
aI13472773
aI13431814
aI13544961
aI13428908
aI13358092
aI13480976
aI13435736
aI13423635
aI13440020
aI13448215
aI13341721
aI13366300
aI13357914
aI13390883
aI13497380
aI13341733
aI13521959
aI13481000
aI13423659
aI13442076
aI13538358
aI13502644
aI13366330
aI13440062
aI13464641
aI13358147
aI13472837
aI13458709
aI13513810
aI13464661
aI13341782
aI13530199
aI13489240
aI13456228
aI13415514
aI13407327
aI13431908
aI13530216
aI13481066
aI13400253
aI13448305
aI13382770
aI13481076
aI13390965
aI13419983
aI13341818
aI13390972
aI13440136
aI13337452
aI13530250
aI13448333
aI13366417
aI13440151
aI13456536
aI13341850
aI13391004
aI13505695
aI13374626
aI13415587
aI13537281
aI13423784
aI13415595
aI13358254
aI13431986
aI13513915
aI13440188
aI13428169
aI13366467
aI13532372
aI13468534
aI13360673
aI13359308
aI13391051
aI13413922
aI13432020
aI13489365
aI13534073
aI13522007
aI13374696
aI13382889
aI13489388
aI13350125
aI13473006
aI13415663
aI13391090
aI13423867
aI13513980
aI13448447
aI13399296
aI13423873
aI13432067
aI13391110
aI13399303
aI13413714
aI13382928
aI13399313
aI13514002
aI13345667
aI13539545
aI13538584
aI13382938
aI13407517
aI13514017
aI13481250
aI13524494
aI13382954
aI13456263
aI13448492
aI13473069
aI13514030
aI13375709
aI13464884
aI13440315
aI13342012
aI13440328
aI13464905
aI13505869
aI13456718
aI13342032
aI13530459
aI13440352
aI13514081
aI13369799
aI13423978
aI13538667
aI13541925
aI13479485
aI13383025
aI13412611
aI13456759
aI13415809
aI13464962
aI13440390
aI13448584
aI13497737
aI13350282
aI13489551
aI13350288
aI13356611
aI13505941
aI13366678
aI13530521
aI13374878
aI13424031
aI13383079
aI13342121
aI13399468
aI13415855
aI13497777
aI13399474
aI13351155
aI13456286
aI13481398
aI13385289
aI13448638
aI13489599
aI13366720
aI13374914
aI13512267
aI13522372
aI13465037
aI13399502
aI13399505
aI13337507
aI13506012
aI13428724
aI13391334
aI13522407
aI13374952
aI13415913
aI13350379
aI13440492
aI13399535
aI13349800
aI13530613
aI13432310
aI13357993
aI13506045
aI13366782
aI13342210
aI13440517
aI13366790
aI13432332
aI13399566
aI13424146
aI13510915
aI13380186
aI13407770
aI13534127
aI13366812
aI13522463
aI13538849
aI13538856
aI13489705
aI13530667
aI13456940
aI13506099
aI13374716
aI13486345
aI13489720
aI13404995
aI13350459
aI13432382
aI13342272
aI13350465
aI13391429
aI13440589
aI13481551
aI13374392
aI13366873
aI13424911
aI13416029
aI13358686
aI13538911
aI13514340
aI13506151
aI13530730
aI13489772
aI13350511
aI13416050
aI13400339
aI13522550
aI13391482
aI13506171
aI13465214
aI13440639
aI13448838
aI13407880
aI13432457
aI13391498
aI13366928
aI13506195
aI13430094
aI13424277
aI13334167
aI13399706
aI13522587
aI13481630
aI13366944
aI13498023
aI13448873
aI13457066
aI13342380
aI13375151
aI13415368
aI13538997
aI13424315
aI13481661
aI13342401
aI13407943
aI13530825
aI13506251
aI13424332
aI13457109
aI13465302
aI13522648
aI13355300
aI13539041
aI13358821
aI13506282
aI13457134
aI13350645
aI13432566
aI13514489
aI13367037
aI13473534
aI13408000
aI13481730
aI13383427
aI13448969
aI13448974
aI13498129
aI13358868
aI13481749
aI13432598
aI13358872
aI13498138
aI13424413
aI13498148
aI13540998
aI13506344
aI13432619
aI13506349
aI13416238
aI13504136
aI13367090
aI13489976
aI13383481
aI13440826
aI13408059
aI13449020
aI13350719
aI13440837
aI13514566
aI13522760
aI13383504
aI13514582
aI13358938
aI13342555
aI13465437
aI13399907
aI13368725
aI13478204
aI13522794
aI13517799
aI13498221
aI13391729
aI13457267
aI13386729
aI13490040
aI13350778
aI13416317
aI13449086
aI13463189
aI13522816
aI13350787
aI13449092
aI13495958
aI13498250
aI13522831
aI13367186
aI13516029
aI13473689
aI13479578
aI13506465
aI13334437
aI13449131
aI13367213
aI13473714
aI13334459
aI13506492
aI13449150
aI13399999
aI13490118
aI13544259
aI13514704
aI13383638
aI13465561
aI13334490
aI13519183
aI13457373
aI13359076
aI13367633
aI13522920
aI13451928
aI13498350
aI13391858
aI13473780
aI13334518
aI13539321
aI13400058
aI13449211
aI13496665
aI13458388
aI13465606
aI13353985
aI13457417
aI13522954
aI13359115
aI13482000
aI13367315
aI13416469
aI13334552
aI13516463
aI13375517
aI13391902
aI13400095
aI13490210
aI13465636
aI13342758
aI13416487
aI13482030
aI13342777
aI13457466
aI13523004
aI13375549
aI13531200
aI13514822
aI13367367
aI13490249
aI13359181
aI13342802
aI13424723
aI13430457
aI13400103
aI13512378
aI13416548
aI13473895
aI13449322
aI13523051
aI13457517
aI13463026
aI13523061
aI13334652
aI13490301
aI13424766
aI13408383
aI13408386
aI13408388
aI13449353
aI13408399
aI13475523
aI13342873
aI13383834
aI13400221
aI13490336
aI13465762
aI13367460
aI13374492
aI13482155
aI13424812
aI13514928
aI13404531
aI13369033
aI13400248
aI13457597
aI13433024
aI13392066
aI13449411
aI13449415
aI13343095
aI13400268
aI13383888
aI13482195
aI13408470
aI13474009
aI13400285
aI13482206
aI13382693
aI13539552
aI13402290
aI13457642
aI13351152
aI13336275
aI13514998
aI13531384
aI13397716
aI13352917
aI13367549
aI13449470
aI13342975
aI13424896
aI13490441
aI13500119
aI13408526
aI13506831
aI13539603
aI13505199
aI13405913
aI13515033
aI13474074
aI13441308
aI13383966
aI13400351
aI13400353
aI13353464
aI13359399
aI13523241
aI13498666
aI13474097
aI13515059
aI13367610
aI13487839
aI13490493
aI13539646
aI13408579
aI13506886
aI13351239
aI13334860
aI13539665
aI13449554
aI13465945
aI13447303
aI13334877
aI13392224
aI13404560
aI13539688
aI13425001
aI13433194
aI13369385
aI13392237
aI13367664
aI13498742
aI13449591
aI13408637
aI13515134
aI13474175
aI13449602
aI13523331
aI13506949
aI13515142
aI13416840
aI13359499
aI13531532
aI13444162
aI13449614
aI13343124
aI13400476
aI13392286
aI13416868
aI13466021
aI13474217
aI13531564
aI13425070
aI13461917
aI13384112
aI13491955
aI13493321
aI13408697
aI13449658
aI13412767
aI13441468
aI13539773
aI13351360
aI13334981
aI13539783
aI13434615
aI13381368
aI13474264
aI13392347
aI13466076
aI13384158
aI13416932
aI13457896
aI13528828
aI13425133
aI13335022
aI13490677
aI13384186
aI13375997
aI13441536
aI13367809
aI13466117
aI13446913
aI13482504
aI13523372
aI13358167
aI13351437
aI13367822
aI13543853
aI13539858
aI13433370
aI13384219
aI13400605
aI13359650
aI13498919
aI13515307
aI13474350
aI13539896
aI13417017
aI13411423
aI13425213
aI13343294
aI13515330
aI13467403
aI13335109
aI13359689
aI13433419
aI13449806
aI13351505
aI13460579
aI13377294
aI13392313
aI13531737
aI13474404
aI13449833
aI13498986
aI13441644
aI13531759
aI13531764
aI13392506
aI13367931
aI13478825
aI13531776
aI13490817
aI13417091
aI13539975
aI13400712
aI13359758
aI13433488
aI13351570
aI13466260
aI13499029
aI13400731
aI13384349
aI13400735
aI13384352
aI13540006
aI13464689
aI13515433
aI13531820
aI13408944
aI13490865
aI13429038
aI13507252
aI13376182
aI13367993
aI13499067
aI13343424
aI13373216
aI13351618
aI13466312
aI13429196
aI13490890
aI13425359
aI13343442
aI13467427
aI13507286
aI13351642
aI13359844
aI13507303
aI13523692
aI13384432
aI13351666
aI13515509
aI13335286
aI13466360
aI13359866
aI13376251
aI13384446
aI13490943
aI13507328
aI13482754
aI13368067
aI13523721
aI13449996
aI13409041
aI13425426
aI13458197
aI13392664
aI13368090
aI13507358
aI13433634
aI13376292
aI13409061
aI13515560
aI13450030
aI13466415
aI13450035
aI13491005
aI13400894
aI13340469
aI13409088
aI13441859
aI13458245
aI13335370
aI13351757
aI13450062
aI13359951
aI13499220
aI13458261
aI13335382
aI13491032
aI13343578
aI13448684
aI13335390
aI13515617
aI13425506
aI13359974
aI13417323
aI13466088
aI13335414
aI13343608
aI13376382
aI13360000
aI13335425
aI13351810
aI13466506
aI13366423
aI13343629
aI13491087
aI13450134
aI13441945
aI13351835
aI13441960
aI13540270
aI13351856
aI13388275
aI13417396
aI13441975
aI13335480
aI13458361
aI13499323
aI13540286
aI13477875
aI13351880
aI13482954
aI13425612
aI13499346
aI13450196
aI13417429
aI13409242
aI13433827
aI13442021
aI13532137
aI13368298
aI13466603
aI13499373
aI13339133
aI13384690
aI13515769
aI13532154
aI13409276
aI13360125
aI13335550
aI13384193
aI13483016
aI13450249
aI13379403
aI13450254
aI13483025
aI13335573
aI13401115
aI13409308
aI13417501
aI13474847
aI13458464
aI13384737
aI13442088
aI13433898
aI13343788
aI13460658
aI13392944
aI13543944
aI13458487
aI13515836
aI13335615
aI13368386
aI13450310
aI13474890
aI13458508
aI13360994
aI13429261
aI13352803
aI13335639
aI13450333
aI13483105
aI13491298
aI13540454
aI13491309
aI13532271
aI13491313
aI13360250
aI13411519
aI13466748
aI13360257
aI13458563
aI13401220
aI13499525
aI13335808
aI13450378
aI13343889
aI13430431
aI13409434
aI13417629
aI13466784
aI13515291
aI13360292
aI13434022
aI13524135
aI13458600
aI13417641
aI13458602
aI13393067
aI13483188
aI13360309
aI13507768
aI13376698
aI13417665
aI13352132
aI13450445
aI13524174
aI13376720
aI13434068
aI13343960
aI13491418
aI13360347
aI13515999
aI13361019
aI13383709
aI13491439
aI13516017
aI13352183
aI13475064
aI13499642
aI13434108
aI13360381
aI13524222
aI13376768
aI13384961
aI13360387
aI13466885
aI13516038
aI13532428
aI13340546
aI13425937
aI13434133
aI13450519
aI13491487
aI13366046
aI13516068
aI13384998
aI13434151
aI13401387
aI13400417
aI13344054
aI13466936
aI13385020
aI13532487
aI13524297
aI13507915
aI13532493
aI13490744
aI13368658
aI13458772
aI13532501
aI13466967
aI13434201
aI13360476
aI13368669
aI13516127
aI13368673
aI13524324
aI13457976
aI13434220
aI13409645
aI13385070
aI13442415
aI13424697
aI13458806
aI13393272
aI13368698
aI13434773
aI13426050
aI13352327
aI13385096
aI13393289
aI13409675
aI13419757
aI13540753
aI13417876
aI13507989
aI13524375
aI13352356
aI13336476
aI13389725
aI13360563
aI13401525
aI13344183
aI13483450
aI13524411
aI13352412
aI13442493
aI13483457
aI13385154
aI13371979
aI13393348
aI13526262
aI13458886
aI13467080
aI13434315
aI13499857
aI13397923
aI13336021
aI13393366
aI13417946
aI13515537
aI13368053
aI13442529
aI13360612
aI13352425
aI13527634
aI13368814
aI13500329
aI13475320
aI13393403
aI13352874
aI13470293
aI13401602
aI13344259
aI13535830
aI13440257
aI13409801
aI13491723
aI13458956
aI13344270
aI13475347
aI13442580
aI13368858
aI13505974
aI13458973
aI13379148
aI13336097
aI13360675
aI13516325
aI13491751
aI13377073
aI13442612
aI13352504
aI13360701
aI13452555
aI13401669
aI13459017
aI13371929
aI13393487
aI13491792
aI13352535
aI13493519
aI13377116
aI13540961
aI13508194
aI13385317
aI13434470
aI13374737
aI13442666
aI13475435
aI13352556
aI13532781
aI13508208
aI13475444
aI13434486
aI13384297
aI13532794
aI13475452
aI13426301
aI13401734
aI13475464
aI13458028
aI13426326
aI13516443
aI13524637
aI13524639
aI13336226
aI13460763
aI13450916
aI13360805
aI13475502
aI13508271
aI13418162
aI13344436
aI13401786
aI13336254
aI13426367
aI13377217
aI13500099
aI13360839
aI13426377
aI13541070
aI13409999
aI13524690
aI13516499
aI13434583
aI13516505
aI13467354
aI13385435
aI13532897
aI13531771
aI13491940
aI13508326
aI13408099
aI13491950
aI13402887
aI13418225
aI13344499
aI13523457
aI13516535
aI13524730
aI13532923
aI13367153
aI13401857
aI13467396
aI13442822
aI13451016
aI13483785
aI13418251
aI13483790
aI13491984
aI13483795
aI13541153
aI13508386
aI13475619
aI13336361
aI13475629
aI13541168
aI13499016
aI13475634
aI13358388
aI13516606
aI13433987
aI13385547
aI13426510
aI13541200
aI13401940
aI13539982
aI13393751
aI13451098
aI13483870
aI13451105
aI13541218
aI13426531
aI13490834
aI13475697
aI13475703
aI13500280
aI13410171
aI13524864
aI13352842
aI13518146
aI13352851
aI13361134
aI13361046
aI13377431
aI13508504
aI13348609
aI13410207
aI13361056
aI13515419
aI13451176
aI13541289
aI13533098
aI13344684
aI13451250
aI13475760
aI13407560
aI13483958
aI13359775
aI13377469
aI13508543
aI13369280
aI13425312
aI13443014
aI13467597
aI13399621
aI13385680
aI13467601
aI13500373
aI13459414
aI13492183
aI13385690
aI13541339
aI13500382
aI13475808
aI13484009
aI13361130
aI13500398
aI13459439
aI13492210
aI13344758
aI13494953
aI13369336
aI13508605
aI13443070
aI13352959
atp2
Rp3
.