c__builtin__
set
p0
((lp1
I13358092
aI13388813
aI13480976
aI13448215
aI13488692
aI13450164
aI13535298
aI13481541
aI13371468
aI13386830
aI13461517
aI13510737
aI13483613
aI13530216
aI13408881
aI13502585
aI13358205
aI13443717
aI13410956
aI13446806
aI13400731
aI13344936
aI13406891
aI13335729
aI13344946
aI13435579
aI13469309
aI13431011
aI13404388
aI13475049
aI13400810
aI13514365
aI13366517
aI13459702
aI13450196
aI13434108
aI13467396
aI13443848
aI13449996
aI13431565
aI13452560
aI13398801
aI13539603
aI13402393
aI13351195
aI13435677
aI13464350
aI13543211
aI13422904
aI13408059
aI13373248
aI13540675
aI13529414
aI13507915
aI13472084
aI13543253
aI13457753
aI13403490
aI13399907
aI13510502
aI13432176
aI13478769
aI13362548
aI13468534
aI13455224
aI13362553
aI13404541
aI13437316
aI13452680
aI13375369
aI13478283
aI13365132
aI13354383
aI13505936
aI13429137
aI13334424
aI13491439
aI13414315
aI13480877
aI13400494
aI13445044
aI13441975
aI13418944
aI13488068
aI13534664
aI13418960
aI13439444
aI13465561
aI13349342
aI13498848
aI13348327
atp2
Rp3
.