c__builtin__
set
p0
((lp1
I13509632
aI13476865
aI13364473
aI13451782
aI13344231
aI13429256
aI13544364
aI13535754
aI13358092
aI13388813
aI13343661
aI13480976
aI13450378
aI13448215
aI13368858
aI13392927
aI13397024
aI13527589
aI13531174
aI13380881
aI13500970
aI13388333
aI13488692
aI13493854
aI13450164
aI13438013
aI13400127
aI13542465
aI13535298
aI13481541
aI13343814
aI13465100
aI13371468
aI13532237
aI13504525
aI13510737
aI13363798
aI13483613
aI13366366
aI13542758
aI13488230
aI13463143
aI13511274
aI13367924
aI13503094
aI13502585
aI13422716
aI13469309
aI13340799
aI13378179
aI13443717
aI13401734
aI13369708
aI13487754
aI13410956
aI13378498
aI13494188
aI13476825
aI13392531
aI13542549
aI13446806
aI13383834
aI13388955
aI13477317
aI13353633
aI13437091
aI13370534
aI13344936
aI13336428
aI13506218
aI13347501
aI13358254
aI13344431
aI13335729
aI13344946
aI13459125
aI13356726
aI13393081
aI13512378
aI13435579
aI13416224
aI13492934
aI13409995
aI13544652
aI13529293
aI13353171
aI13427926
aI13382362
aI13395165
aI13431011
aI13507303
aI13475049
aI13491439
aI13366517
aI13459702
aI13450196
aI13420550
aI13379835
aI13434108
aI13379325
aI13487872
aI13467396
aI13443848
aI13473709
aI13541643
aI13449996
aI13431565
aI13398801
aI13388055
aI13384984
aI13402393
aI13351195
aI13435677
aI13464350
aI13472544
aI13525794
aI13516068
aI13544741
aI13351211
aI13475629
aI13467952
aI13448584
aI13418455
aI13519160
aI13408059
aI13379722
aI13373248
aI13373761
aI13339973
aI13529414
aI13389129
aI13507915
aI13440125
aI13394771
aI13401940
aI13543253
aI13543767
aI13457753
aI13414235
aI13443933
aI13361503
aI13396832
aI13403490
aI13399907
aI13510502
aI13429137
aI13515624
aI13370343
aI13536620
aI13439342
aI13432176
aI13377906
aI13362548
aI13460341
aI13517686
aI13455224
aI13472127
aI13437316
aI13383047
aI13452680
aI13478283
aI13420430
aI13354383
aI13505936
aI13457297
aI13494674
aI13466519
aI13434775
aI13433248
aI13400731
aI13438884
aI13365672
aI13405097
aI13414315
aI13403564
aI13480877
aI13400494
aI13540784
aI13429169
aI13445044
aI13441975
aI13503938
aI13488068
aI13334981
aI13534664
aI13353275
aI13359181
aI13418960
aI13439444
aI13530071
aI13465561
aI13455325
aI13413344
aI13499876
aI13387533
aI13348327
aI13492989
aI13444594
aI13496822
aI13433337
aI13460474
aI13478398
aI13341695
atp2
Rp3
.